

Microchip MPLAB XC8 Assembler V2.10 build 88905656 
                                                                                               Wed Feb 19 21:14:43 2020

Microchip MPLAB XC8 C Compiler v2.10 (Free license) build 20190730164152 Og1 
     1                           	processor	16F15313
     2                           	opt	pw 120
     3                           	opt	flic
     4                           	psect	cinit,global,class=CODE,merge=1,delta=2
     5                           	psect	bssCOMMON,global,class=COMMON,space=1,delta=1
     6                           	psect	bssBANK0,global,class=BANK0,space=1,delta=1
     7                           	psect	cstackCOMMON,global,class=COMMON,space=1,delta=1
     8                           	psect	maintext,global,class=CODE,merge=1,split=1,delta=2
     9                           	psect	text1,local,class=CODE,merge=1,delta=2
    10                           	psect	text2,local,class=CODE,merge=1,delta=2
    11                           	psect	text3,local,class=CODE,merge=1,delta=2
    12                           	psect	text4,local,class=CODE,merge=1,delta=2
    13                           	psect	text5,local,class=CODE,merge=1,delta=2
    14                           	psect	text6,local,class=CODE,merge=1,delta=2
    15                           	psect	text7,local,class=CODE,merge=1,delta=2
    16                           	psect	text8,local,class=CODE,merge=1,delta=2
    17                           	psect	text9,local,class=CODE,merge=1,delta=2
    18                           	psect	text10,local,class=CODE,merge=1,delta=2
    19                           	psect	text11,local,class=CODE,merge=1,delta=2
    20                           	psect	text12,local,class=CODE,merge=1,delta=2
    21                           	psect	intentry,global,class=CODE,delta=2
    22                           	psect	text14,local,class=CODE,merge=1,delta=2
    23                           	dabs	1,0x7E,2
    24  0000                     
    25                           ; Version 2.10
    26                           ; Generated 31/07/2019 GMT
    27                           ; 
    28                           ; Copyright © 2019, Microchip Technology Inc. and its subsidiaries ("Microchip")
    29                           ; All rights reserved.
    30                           ; 
    31                           ; This software is developed by Microchip Technology Inc. and its subsidiaries ("Microch
      +                          ip").
    32                           ; 
    33                           ; Redistribution and use in source and binary forms, with or without modification, are
    34                           ; permitted provided that the following conditions are met:
    35                           ; 
    36                           ;     1. Redistributions of source code must retain the above copyright notice, this lis
      +                          t of
    37                           ;        conditions and the following disclaimer.
    38                           ; 
    39                           ;     2. Redistributions in binary form must reproduce the above copyright notice, this 
      +                          list
    40                           ;        of conditions and the following disclaimer in the documentation and/or other
    41                           ;        materials provided with the distribution.
    42                           ; 
    43                           ;     3. Microchip's name may not be used to endorse or promote products derived from th
      +                          is
    44                           ;        software without specific prior written permission.
    45                           ; 
    46                           ; THIS SOFTWARE IS PROVIDED BY MICROCHIP "AS IS" AND ANY EXPRESS OR IMPLIED WARRANTIES,
    47                           ; INCLUDING, BUT NOT LIMITED TO, THE IMPLIED WARRANTIES OF MERCHANTABILITY AND FITNESS F
      +                          OR
    48                           ; PURPOSE ARE DISCLAIMED.  IN NO EVENT SHALL MICROCHIP BE LIABLE FOR ANY DIRECT, INDIREC
      +                          T,
    49                           ; INCIDENTAL, SPECIAL, EXEMPLARY, OR CONSEQUENTIAL DAMAGES (INCLUDING BUT NOT LIMITED TO
    50                           ; PROCUREMENT OF SUBSTITUTE GOODS OR SERVICES; LOSS OF USE, DATA OR PROFITS; OR BUSINESS
    51                           ; INTERRUPTION) HOWSOEVER CAUSED AND ON ANY THEORY OF LIABILITY, WHETHER IN CONTRACT, ST
      +                          RICT
    52                           ; LIABILITY, OR TORT (INCLUDING NEGLIGENCE OR OTHERWISE) ARISING IN ANY WAY OUT OF THE U
      +                          SE OF
    53                           ; THIS SOFTWARE, EVEN IF ADVISED OF THE POSSIBILITY OF SUCH DAMAGE.
    54                           ; 
    55                           ; 
    56                           ; Code-generator required, PIC16F15313 Definitions
    57                           ; 
    58                           ; SFR Addresses
    59  0000                     	;# 
    60  0001                     	;# 
    61  0002                     	;# 
    62  0003                     	;# 
    63  0004                     	;# 
    64  0005                     	;# 
    65  0006                     	;# 
    66  0007                     	;# 
    67  0008                     	;# 
    68  0009                     	;# 
    69  000A                     	;# 
    70  000B                     	;# 
    71  000C                     	;# 
    72  0012                     	;# 
    73  0018                     	;# 
    74  009B                     	;# 
    75  009B                     	;# 
    76  009C                     	;# 
    77  009D                     	;# 
    78  009E                     	;# 
    79  009F                     	;# 
    80  0119                     	;# 
    81  0119                     	;# 
    82  0119                     	;# 
    83  011A                     	;# 
    84  011A                     	;# 
    85  011A                     	;# 
    86  011B                     	;# 
    87  011B                     	;# 
    88  011B                     	;# 
    89  011B                     	;# 
    90  011B                     	;# 
    91  011C                     	;# 
    92  011C                     	;# 
    93  011C                     	;# 
    94  011D                     	;# 
    95  011D                     	;# 
    96  011D                     	;# 
    97  011E                     	;# 
    98  011E                     	;# 
    99  011E                     	;# 
   100  011F                     	;# 
   101  011F                     	;# 
   102  011F                     	;# 
   103  011F                     	;# 
   104  011F                     	;# 
   105  018C                     	;# 
   106  018D                     	;# 
   107  018E                     	;# 
   108  018F                     	;# 
   109  0190                     	;# 
   110  0191                     	;# 
   111  0192                     	;# 
   112  020C                     	;# 
   113  020C                     	;# 
   114  020D                     	;# 
   115  020E                     	;# 
   116  020F                     	;# 
   117  020F                     	;# 
   118  0210                     	;# 
   119  0210                     	;# 
   120  0211                     	;# 
   121  0211                     	;# 
   122  028C                     	;# 
   123  028C                     	;# 
   124  028D                     	;# 
   125  028D                     	;# 
   126  028E                     	;# 
   127  028F                     	;# 
   128  0290                     	;# 
   129  0291                     	;# 
   130  030C                     	;# 
   131  030C                     	;# 
   132  030D                     	;# 
   133  030E                     	;# 
   134  030F                     	;# 
   135  0310                     	;# 
   136  0310                     	;# 
   137  0311                     	;# 
   138  0312                     	;# 
   139  0313                     	;# 
   140  0314                     	;# 
   141  0314                     	;# 
   142  0315                     	;# 
   143  0316                     	;# 
   144  0318                     	;# 
   145  0318                     	;# 
   146  0319                     	;# 
   147  031A                     	;# 
   148  031C                     	;# 
   149  031C                     	;# 
   150  031D                     	;# 
   151  031E                     	;# 
   152  038C                     	;# 
   153  038C                     	;# 
   154  038D                     	;# 
   155  038E                     	;# 
   156  058C                     	;# 
   157  058C                     	;# 
   158  058D                     	;# 
   159  058E                     	;# 
   160  058F                     	;# 
   161  058F                     	;# 
   162  0590                     	;# 
   163  0591                     	;# 
   164  0592                     	;# 
   165  0593                     	;# 
   166  059C                     	;# 
   167  059C                     	;# 
   168  059D                     	;# 
   169  059D                     	;# 
   170  059E                     	;# 
   171  059F                     	;# 
   172  060C                     	;# 
   173  060D                     	;# 
   174  060E                     	;# 
   175  060F                     	;# 
   176  0610                     	;# 
   177  0611                     	;# 
   178  0612                     	;# 
   179  0613                     	;# 
   180  0614                     	;# 
   181  070C                     	;# 
   182  070D                     	;# 
   183  070E                     	;# 
   184  070F                     	;# 
   185  0710                     	;# 
   186  0711                     	;# 
   187  0712                     	;# 
   188  0713                     	;# 
   189  0716                     	;# 
   190  0717                     	;# 
   191  0718                     	;# 
   192  0719                     	;# 
   193  071A                     	;# 
   194  071B                     	;# 
   195  071C                     	;# 
   196  071D                     	;# 
   197  0796                     	;# 
   198  0797                     	;# 
   199  0798                     	;# 
   200  0799                     	;# 
   201  079A                     	;# 
   202  079B                     	;# 
   203  080C                     	;# 
   204  080D                     	;# 
   205  080E                     	;# 
   206  080F                     	;# 
   207  0810                     	;# 
   208  0811                     	;# 
   209  0812                     	;# 
   210  0813                     	;# 
   211  0814                     	;# 
   212  081A                     	;# 
   213  081A                     	;# 
   214  081B                     	;# 
   215  081C                     	;# 
   216  081C                     	;# 
   217  081D                     	;# 
   218  081E                     	;# 
   219  081F                     	;# 
   220  088C                     	;# 
   221  088D                     	;# 
   222  088E                     	;# 
   223  088F                     	;# 
   224  0890                     	;# 
   225  0891                     	;# 
   226  0892                     	;# 
   227  0893                     	;# 
   228  0895                     	;# 
   229  0896                     	;# 
   230  090C                     	;# 
   231  090E                     	;# 
   232  090F                     	;# 
   233  091F                     	;# 
   234  098F                     	;# 
   235  098F                     	;# 
   236  0990                     	;# 
   237  0991                     	;# 
   238  0992                     	;# 
   239  0993                     	;# 
   240  1E0F                     	;# 
   241  1E10                     	;# 
   242  1E11                     	;# 
   243  1E12                     	;# 
   244  1E13                     	;# 
   245  1E14                     	;# 
   246  1E15                     	;# 
   247  1E16                     	;# 
   248  1E17                     	;# 
   249  1E18                     	;# 
   250  1E19                     	;# 
   251  1E1A                     	;# 
   252  1E1B                     	;# 
   253  1E1C                     	;# 
   254  1E1D                     	;# 
   255  1E1E                     	;# 
   256  1E1F                     	;# 
   257  1E20                     	;# 
   258  1E21                     	;# 
   259  1E22                     	;# 
   260  1E23                     	;# 
   261  1E24                     	;# 
   262  1E25                     	;# 
   263  1E26                     	;# 
   264  1E27                     	;# 
   265  1E28                     	;# 
   266  1E29                     	;# 
   267  1E2A                     	;# 
   268  1E2B                     	;# 
   269  1E2C                     	;# 
   270  1E2D                     	;# 
   271  1E2E                     	;# 
   272  1E2F                     	;# 
   273  1E30                     	;# 
   274  1E31                     	;# 
   275  1E32                     	;# 
   276  1E33                     	;# 
   277  1E34                     	;# 
   278  1E35                     	;# 
   279  1E36                     	;# 
   280  1E37                     	;# 
   281  1E8F                     	;# 
   282  1E90                     	;# 
   283  1E91                     	;# 
   284  1E92                     	;# 
   285  1E93                     	;# 
   286  1E9C                     	;# 
   287  1EA1                     	;# 
   288  1EA2                     	;# 
   289  1EB1                     	;# 
   290  1EBB                     	;# 
   291  1EBC                     	;# 
   292  1EBD                     	;# 
   293  1EBE                     	;# 
   294  1EC3                     	;# 
   295  1EC5                     	;# 
   296  1EC6                     	;# 
   297  1EC7                     	;# 
   298  1ECB                     	;# 
   299  1ECC                     	;# 
   300  1F10                     	;# 
   301  1F11                     	;# 
   302  1F12                     	;# 
   303  1F13                     	;# 
   304  1F14                     	;# 
   305  1F15                     	;# 
   306  1F38                     	;# 
   307  1F39                     	;# 
   308  1F3A                     	;# 
   309  1F3B                     	;# 
   310  1F3C                     	;# 
   311  1F3D                     	;# 
   312  1F3E                     	;# 
   313  1F3F                     	;# 
   314  1FE4                     	;# 
   315  1FE5                     	;# 
   316  1FE6                     	;# 
   317  1FE7                     	;# 
   318  1FE8                     	;# 
   319  1FE8                     	;# 
   320  1FE9                     	;# 
   321  1FEA                     	;# 
   322  1FEA                     	;# 
   323  1FEB                     	;# 
   324  1FED                     	;# 
   325  1FEE                     	;# 
   326  1FEF                     	;# 
   327  0000                     	;# 
   328  0001                     	;# 
   329  0002                     	;# 
   330  0003                     	;# 
   331  0004                     	;# 
   332  0005                     	;# 
   333  0006                     	;# 
   334  0007                     	;# 
   335  0008                     	;# 
   336  0009                     	;# 
   337  000A                     	;# 
   338  000B                     	;# 
   339  000C                     	;# 
   340  0012                     	;# 
   341  0018                     	;# 
   342  009B                     	;# 
   343  009B                     	;# 
   344  009C                     	;# 
   345  009D                     	;# 
   346  009E                     	;# 
   347  009F                     	;# 
   348  0119                     	;# 
   349  0119                     	;# 
   350  0119                     	;# 
   351  011A                     	;# 
   352  011A                     	;# 
   353  011A                     	;# 
   354  011B                     	;# 
   355  011B                     	;# 
   356  011B                     	;# 
   357  011B                     	;# 
   358  011B                     	;# 
   359  011C                     	;# 
   360  011C                     	;# 
   361  011C                     	;# 
   362  011D                     	;# 
   363  011D                     	;# 
   364  011D                     	;# 
   365  011E                     	;# 
   366  011E                     	;# 
   367  011E                     	;# 
   368  011F                     	;# 
   369  011F                     	;# 
   370  011F                     	;# 
   371  011F                     	;# 
   372  011F                     	;# 
   373  018C                     	;# 
   374  018D                     	;# 
   375  018E                     	;# 
   376  018F                     	;# 
   377  0190                     	;# 
   378  0191                     	;# 
   379  0192                     	;# 
   380  020C                     	;# 
   381  020C                     	;# 
   382  020D                     	;# 
   383  020E                     	;# 
   384  020F                     	;# 
   385  020F                     	;# 
   386  0210                     	;# 
   387  0210                     	;# 
   388  0211                     	;# 
   389  0211                     	;# 
   390  028C                     	;# 
   391  028C                     	;# 
   392  028D                     	;# 
   393  028D                     	;# 
   394  028E                     	;# 
   395  028F                     	;# 
   396  0290                     	;# 
   397  0291                     	;# 
   398  030C                     	;# 
   399  030C                     	;# 
   400  030D                     	;# 
   401  030E                     	;# 
   402  030F                     	;# 
   403  0310                     	;# 
   404  0310                     	;# 
   405  0311                     	;# 
   406  0312                     	;# 
   407  0313                     	;# 
   408  0314                     	;# 
   409  0314                     	;# 
   410  0315                     	;# 
   411  0316                     	;# 
   412  0318                     	;# 
   413  0318                     	;# 
   414  0319                     	;# 
   415  031A                     	;# 
   416  031C                     	;# 
   417  031C                     	;# 
   418  031D                     	;# 
   419  031E                     	;# 
   420  038C                     	;# 
   421  038C                     	;# 
   422  038D                     	;# 
   423  038E                     	;# 
   424  058C                     	;# 
   425  058C                     	;# 
   426  058D                     	;# 
   427  058E                     	;# 
   428  058F                     	;# 
   429  058F                     	;# 
   430  0590                     	;# 
   431  0591                     	;# 
   432  0592                     	;# 
   433  0593                     	;# 
   434  059C                     	;# 
   435  059C                     	;# 
   436  059D                     	;# 
   437  059D                     	;# 
   438  059E                     	;# 
   439  059F                     	;# 
   440  060C                     	;# 
   441  060D                     	;# 
   442  060E                     	;# 
   443  060F                     	;# 
   444  0610                     	;# 
   445  0611                     	;# 
   446  0612                     	;# 
   447  0613                     	;# 
   448  0614                     	;# 
   449  070C                     	;# 
   450  070D                     	;# 
   451  070E                     	;# 
   452  070F                     	;# 
   453  0710                     	;# 
   454  0711                     	;# 
   455  0712                     	;# 
   456  0713                     	;# 
   457  0716                     	;# 
   458  0717                     	;# 
   459  0718                     	;# 
   460  0719                     	;# 
   461  071A                     	;# 
   462  071B                     	;# 
   463  071C                     	;# 
   464  071D                     	;# 
   465  0796                     	;# 
   466  0797                     	;# 
   467  0798                     	;# 
   468  0799                     	;# 
   469  079A                     	;# 
   470  079B                     	;# 
   471  080C                     	;# 
   472  080D                     	;# 
   473  080E                     	;# 
   474  080F                     	;# 
   475  0810                     	;# 
   476  0811                     	;# 
   477  0812                     	;# 
   478  0813                     	;# 
   479  0814                     	;# 
   480  081A                     	;# 
   481  081A                     	;# 
   482  081B                     	;# 
   483  081C                     	;# 
   484  081C                     	;# 
   485  081D                     	;# 
   486  081E                     	;# 
   487  081F                     	;# 
   488  088C                     	;# 
   489  088D                     	;# 
   490  088E                     	;# 
   491  088F                     	;# 
   492  0890                     	;# 
   493  0891                     	;# 
   494  0892                     	;# 
   495  0893                     	;# 
   496  0895                     	;# 
   497  0896                     	;# 
   498  090C                     	;# 
   499  090E                     	;# 
   500  090F                     	;# 
   501  091F                     	;# 
   502  098F                     	;# 
   503  098F                     	;# 
   504  0990                     	;# 
   505  0991                     	;# 
   506  0992                     	;# 
   507  0993                     	;# 
   508  1E0F                     	;# 
   509  1E10                     	;# 
   510  1E11                     	;# 
   511  1E12                     	;# 
   512  1E13                     	;# 
   513  1E14                     	;# 
   514  1E15                     	;# 
   515  1E16                     	;# 
   516  1E17                     	;# 
   517  1E18                     	;# 
   518  1E19                     	;# 
   519  1E1A                     	;# 
   520  1E1B                     	;# 
   521  1E1C                     	;# 
   522  1E1D                     	;# 
   523  1E1E                     	;# 
   524  1E1F                     	;# 
   525  1E20                     	;# 
   526  1E21                     	;# 
   527  1E22                     	;# 
   528  1E23                     	;# 
   529  1E24                     	;# 
   530  1E25                     	;# 
   531  1E26                     	;# 
   532  1E27                     	;# 
   533  1E28                     	;# 
   534  1E29                     	;# 
   535  1E2A                     	;# 
   536  1E2B                     	;# 
   537  1E2C                     	;# 
   538  1E2D                     	;# 
   539  1E2E                     	;# 
   540  1E2F                     	;# 
   541  1E30                     	;# 
   542  1E31                     	;# 
   543  1E32                     	;# 
   544  1E33                     	;# 
   545  1E34                     	;# 
   546  1E35                     	;# 
   547  1E36                     	;# 
   548  1E37                     	;# 
   549  1E8F                     	;# 
   550  1E90                     	;# 
   551  1E91                     	;# 
   552  1E92                     	;# 
   553  1E93                     	;# 
   554  1E9C                     	;# 
   555  1EA1                     	;# 
   556  1EA2                     	;# 
   557  1EB1                     	;# 
   558  1EBB                     	;# 
   559  1EBC                     	;# 
   560  1EBD                     	;# 
   561  1EBE                     	;# 
   562  1EC3                     	;# 
   563  1EC5                     	;# 
   564  1EC6                     	;# 
   565  1EC7                     	;# 
   566  1ECB                     	;# 
   567  1ECC                     	;# 
   568  1F10                     	;# 
   569  1F11                     	;# 
   570  1F12                     	;# 
   571  1F13                     	;# 
   572  1F14                     	;# 
   573  1F15                     	;# 
   574  1F38                     	;# 
   575  1F39                     	;# 
   576  1F3A                     	;# 
   577  1F3B                     	;# 
   578  1F3C                     	;# 
   579  1F3D                     	;# 
   580  1F3E                     	;# 
   581  1F3F                     	;# 
   582  1FE4                     	;# 
   583  1FE5                     	;# 
   584  1FE6                     	;# 
   585  1FE7                     	;# 
   586  1FE8                     	;# 
   587  1FE8                     	;# 
   588  1FE9                     	;# 
   589  1FEA                     	;# 
   590  1FEA                     	;# 
   591  1FEB                     	;# 
   592  1FED                     	;# 
   593  1FEE                     	;# 
   594  1FEF                     	;# 
   595  0000                     	;# 
   596  0001                     	;# 
   597  0002                     	;# 
   598  0003                     	;# 
   599  0004                     	;# 
   600  0005                     	;# 
   601  0006                     	;# 
   602  0007                     	;# 
   603  0008                     	;# 
   604  0009                     	;# 
   605  000A                     	;# 
   606  000B                     	;# 
   607  000C                     	;# 
   608  0012                     	;# 
   609  0018                     	;# 
   610  009B                     	;# 
   611  009B                     	;# 
   612  009C                     	;# 
   613  009D                     	;# 
   614  009E                     	;# 
   615  009F                     	;# 
   616  0119                     	;# 
   617  0119                     	;# 
   618  0119                     	;# 
   619  011A                     	;# 
   620  011A                     	;# 
   621  011A                     	;# 
   622  011B                     	;# 
   623  011B                     	;# 
   624  011B                     	;# 
   625  011B                     	;# 
   626  011B                     	;# 
   627  011C                     	;# 
   628  011C                     	;# 
   629  011C                     	;# 
   630  011D                     	;# 
   631  011D                     	;# 
   632  011D                     	;# 
   633  011E                     	;# 
   634  011E                     	;# 
   635  011E                     	;# 
   636  011F                     	;# 
   637  011F                     	;# 
   638  011F                     	;# 
   639  011F                     	;# 
   640  011F                     	;# 
   641  018C                     	;# 
   642  018D                     	;# 
   643  018E                     	;# 
   644  018F                     	;# 
   645  0190                     	;# 
   646  0191                     	;# 
   647  0192                     	;# 
   648  020C                     	;# 
   649  020C                     	;# 
   650  020D                     	;# 
   651  020E                     	;# 
   652  020F                     	;# 
   653  020F                     	;# 
   654  0210                     	;# 
   655  0210                     	;# 
   656  0211                     	;# 
   657  0211                     	;# 
   658  028C                     	;# 
   659  028C                     	;# 
   660  028D                     	;# 
   661  028D                     	;# 
   662  028E                     	;# 
   663  028F                     	;# 
   664  0290                     	;# 
   665  0291                     	;# 
   666  030C                     	;# 
   667  030C                     	;# 
   668  030D                     	;# 
   669  030E                     	;# 
   670  030F                     	;# 
   671  0310                     	;# 
   672  0310                     	;# 
   673  0311                     	;# 
   674  0312                     	;# 
   675  0313                     	;# 
   676  0314                     	;# 
   677  0314                     	;# 
   678  0315                     	;# 
   679  0316                     	;# 
   680  0318                     	;# 
   681  0318                     	;# 
   682  0319                     	;# 
   683  031A                     	;# 
   684  031C                     	;# 
   685  031C                     	;# 
   686  031D                     	;# 
   687  031E                     	;# 
   688  038C                     	;# 
   689  038C                     	;# 
   690  038D                     	;# 
   691  038E                     	;# 
   692  058C                     	;# 
   693  058C                     	;# 
   694  058D                     	;# 
   695  058E                     	;# 
   696  058F                     	;# 
   697  058F                     	;# 
   698  0590                     	;# 
   699  0591                     	;# 
   700  0592                     	;# 
   701  0593                     	;# 
   702  059C                     	;# 
   703  059C                     	;# 
   704  059D                     	;# 
   705  059D                     	;# 
   706  059E                     	;# 
   707  059F                     	;# 
   708  060C                     	;# 
   709  060D                     	;# 
   710  060E                     	;# 
   711  060F                     	;# 
   712  0610                     	;# 
   713  0611                     	;# 
   714  0612                     	;# 
   715  0613                     	;# 
   716  0614                     	;# 
   717  070C                     	;# 
   718  070D                     	;# 
   719  070E                     	;# 
   720  070F                     	;# 
   721  0710                     	;# 
   722  0711                     	;# 
   723  0712                     	;# 
   724  0713                     	;# 
   725  0716                     	;# 
   726  0717                     	;# 
   727  0718                     	;# 
   728  0719                     	;# 
   729  071A                     	;# 
   730  071B                     	;# 
   731  071C                     	;# 
   732  071D                     	;# 
   733  0796                     	;# 
   734  0797                     	;# 
   735  0798                     	;# 
   736  0799                     	;# 
   737  079A                     	;# 
   738  079B                     	;# 
   739  080C                     	;# 
   740  080D                     	;# 
   741  080E                     	;# 
   742  080F                     	;# 
   743  0810                     	;# 
   744  0811                     	;# 
   745  0812                     	;# 
   746  0813                     	;# 
   747  0814                     	;# 
   748  081A                     	;# 
   749  081A                     	;# 
   750  081B                     	;# 
   751  081C                     	;# 
   752  081C                     	;# 
   753  081D                     	;# 
   754  081E                     	;# 
   755  081F                     	;# 
   756  088C                     	;# 
   757  088D                     	;# 
   758  088E                     	;# 
   759  088F                     	;# 
   760  0890                     	;# 
   761  0891                     	;# 
   762  0892                     	;# 
   763  0893                     	;# 
   764  0895                     	;# 
   765  0896                     	;# 
   766  090C                     	;# 
   767  090E                     	;# 
   768  090F                     	;# 
   769  091F                     	;# 
   770  098F                     	;# 
   771  098F                     	;# 
   772  0990                     	;# 
   773  0991                     	;# 
   774  0992                     	;# 
   775  0993                     	;# 
   776  1E0F                     	;# 
   777  1E10                     	;# 
   778  1E11                     	;# 
   779  1E12                     	;# 
   780  1E13                     	;# 
   781  1E14                     	;# 
   782  1E15                     	;# 
   783  1E16                     	;# 
   784  1E17                     	;# 
   785  1E18                     	;# 
   786  1E19                     	;# 
   787  1E1A                     	;# 
   788  1E1B                     	;# 
   789  1E1C                     	;# 
   790  1E1D                     	;# 
   791  1E1E                     	;# 
   792  1E1F                     	;# 
   793  1E20                     	;# 
   794  1E21                     	;# 
   795  1E22                     	;# 
   796  1E23                     	;# 
   797  1E24                     	;# 
   798  1E25                     	;# 
   799  1E26                     	;# 
   800  1E27                     	;# 
   801  1E28                     	;# 
   802  1E29                     	;# 
   803  1E2A                     	;# 
   804  1E2B                     	;# 
   805  1E2C                     	;# 
   806  1E2D                     	;# 
   807  1E2E                     	;# 
   808  1E2F                     	;# 
   809  1E30                     	;# 
   810  1E31                     	;# 
   811  1E32                     	;# 
   812  1E33                     	;# 
   813  1E34                     	;# 
   814  1E35                     	;# 
   815  1E36                     	;# 
   816  1E37                     	;# 
   817  1E8F                     	;# 
   818  1E90                     	;# 
   819  1E91                     	;# 
   820  1E92                     	;# 
   821  1E93                     	;# 
   822  1E9C                     	;# 
   823  1EA1                     	;# 
   824  1EA2                     	;# 
   825  1EB1                     	;# 
   826  1EBB                     	;# 
   827  1EBC                     	;# 
   828  1EBD                     	;# 
   829  1EBE                     	;# 
   830  1EC3                     	;# 
   831  1EC5                     	;# 
   832  1EC6                     	;# 
   833  1EC7                     	;# 
   834  1ECB                     	;# 
   835  1ECC                     	;# 
   836  1F10                     	;# 
   837  1F11                     	;# 
   838  1F12                     	;# 
   839  1F13                     	;# 
   840  1F14                     	;# 
   841  1F15                     	;# 
   842  1F38                     	;# 
   843  1F39                     	;# 
   844  1F3A                     	;# 
   845  1F3B                     	;# 
   846  1F3C                     	;# 
   847  1F3D                     	;# 
   848  1F3E                     	;# 
   849  1F3F                     	;# 
   850  1FE4                     	;# 
   851  1FE5                     	;# 
   852  1FE6                     	;# 
   853  1FE7                     	;# 
   854  1FE8                     	;# 
   855  1FE8                     	;# 
   856  1FE9                     	;# 
   857  1FEA                     	;# 
   858  1FEA                     	;# 
   859  1FEB                     	;# 
   860  1FED                     	;# 
   861  1FEE                     	;# 
   862  1FEF                     	;# 
   863  0000                     	;# 
   864  0001                     	;# 
   865  0002                     	;# 
   866  0003                     	;# 
   867  0004                     	;# 
   868  0005                     	;# 
   869  0006                     	;# 
   870  0007                     	;# 
   871  0008                     	;# 
   872  0009                     	;# 
   873  000A                     	;# 
   874  000B                     	;# 
   875  000C                     	;# 
   876  0012                     	;# 
   877  0018                     	;# 
   878  009B                     	;# 
   879  009B                     	;# 
   880  009C                     	;# 
   881  009D                     	;# 
   882  009E                     	;# 
   883  009F                     	;# 
   884  0119                     	;# 
   885  0119                     	;# 
   886  0119                     	;# 
   887  011A                     	;# 
   888  011A                     	;# 
   889  011A                     	;# 
   890  011B                     	;# 
   891  011B                     	;# 
   892  011B                     	;# 
   893  011B                     	;# 
   894  011B                     	;# 
   895  011C                     	;# 
   896  011C                     	;# 
   897  011C                     	;# 
   898  011D                     	;# 
   899  011D                     	;# 
   900  011D                     	;# 
   901  011E                     	;# 
   902  011E                     	;# 
   903  011E                     	;# 
   904  011F                     	;# 
   905  011F                     	;# 
   906  011F                     	;# 
   907  011F                     	;# 
   908  011F                     	;# 
   909  018C                     	;# 
   910  018D                     	;# 
   911  018E                     	;# 
   912  018F                     	;# 
   913  0190                     	;# 
   914  0191                     	;# 
   915  0192                     	;# 
   916  020C                     	;# 
   917  020C                     	;# 
   918  020D                     	;# 
   919  020E                     	;# 
   920  020F                     	;# 
   921  020F                     	;# 
   922  0210                     	;# 
   923  0210                     	;# 
   924  0211                     	;# 
   925  0211                     	;# 
   926  028C                     	;# 
   927  028C                     	;# 
   928  028D                     	;# 
   929  028D                     	;# 
   930  028E                     	;# 
   931  028F                     	;# 
   932  0290                     	;# 
   933  0291                     	;# 
   934  030C                     	;# 
   935  030C                     	;# 
   936  030D                     	;# 
   937  030E                     	;# 
   938  030F                     	;# 
   939  0310                     	;# 
   940  0310                     	;# 
   941  0311                     	;# 
   942  0312                     	;# 
   943  0313                     	;# 
   944  0314                     	;# 
   945  0314                     	;# 
   946  0315                     	;# 
   947  0316                     	;# 
   948  0318                     	;# 
   949  0318                     	;# 
   950  0319                     	;# 
   951  031A                     	;# 
   952  031C                     	;# 
   953  031C                     	;# 
   954  031D                     	;# 
   955  031E                     	;# 
   956  038C                     	;# 
   957  038C                     	;# 
   958  038D                     	;# 
   959  038E                     	;# 
   960  058C                     	;# 
   961  058C                     	;# 
   962  058D                     	;# 
   963  058E                     	;# 
   964  058F                     	;# 
   965  058F                     	;# 
   966  0590                     	;# 
   967  0591                     	;# 
   968  0592                     	;# 
   969  0593                     	;# 
   970  059C                     	;# 
   971  059C                     	;# 
   972  059D                     	;# 
   973  059D                     	;# 
   974  059E                     	;# 
   975  059F                     	;# 
   976  060C                     	;# 
   977  060D                     	;# 
   978  060E                     	;# 
   979  060F                     	;# 
   980  0610                     	;# 
   981  0611                     	;# 
   982  0612                     	;# 
   983  0613                     	;# 
   984  0614                     	;# 
   985  070C                     	;# 
   986  070D                     	;# 
   987  070E                     	;# 
   988  070F                     	;# 
   989  0710                     	;# 
   990  0711                     	;# 
   991  0712                     	;# 
   992  0713                     	;# 
   993  0716                     	;# 
   994  0717                     	;# 
   995  0718                     	;# 
   996  0719                     	;# 
   997  071A                     	;# 
   998  071B                     	;# 
   999  071C                     	;# 
  1000  071D                     	;# 
  1001  0796                     	;# 
  1002  0797                     	;# 
  1003  0798                     	;# 
  1004  0799                     	;# 
  1005  079A                     	;# 
  1006  079B                     	;# 
  1007  080C                     	;# 
  1008  080D                     	;# 
  1009  080E                     	;# 
  1010  080F                     	;# 
  1011  0810                     	;# 
  1012  0811                     	;# 
  1013  0812                     	;# 
  1014  0813                     	;# 
  1015  0814                     	;# 
  1016  081A                     	;# 
  1017  081A                     	;# 
  1018  081B                     	;# 
  1019  081C                     	;# 
  1020  081C                     	;# 
  1021  081D                     	;# 
  1022  081E                     	;# 
  1023  081F                     	;# 
  1024  088C                     	;# 
  1025  088D                     	;# 
  1026  088E                     	;# 
  1027  088F                     	;# 
  1028  0890                     	;# 
  1029  0891                     	;# 
  1030  0892                     	;# 
  1031  0893                     	;# 
  1032  0895                     	;# 
  1033  0896                     	;# 
  1034  090C                     	;# 
  1035  090E                     	;# 
  1036  090F                     	;# 
  1037  091F                     	;# 
  1038  098F                     	;# 
  1039  098F                     	;# 
  1040  0990                     	;# 
  1041  0991                     	;# 
  1042  0992                     	;# 
  1043  0993                     	;# 
  1044  1E0F                     	;# 
  1045  1E10                     	;# 
  1046  1E11                     	;# 
  1047  1E12                     	;# 
  1048  1E13                     	;# 
  1049  1E14                     	;# 
  1050  1E15                     	;# 
  1051  1E16                     	;# 
  1052  1E17                     	;# 
  1053  1E18                     	;# 
  1054  1E19                     	;# 
  1055  1E1A                     	;# 
  1056  1E1B                     	;# 
  1057  1E1C                     	;# 
  1058  1E1D                     	;# 
  1059  1E1E                     	;# 
  1060  1E1F                     	;# 
  1061  1E20                     	;# 
  1062  1E21                     	;# 
  1063  1E22                     	;# 
  1064  1E23                     	;# 
  1065  1E24                     	;# 
  1066  1E25                     	;# 
  1067  1E26                     	;# 
  1068  1E27                     	;# 
  1069  1E28                     	;# 
  1070  1E29                     	;# 
  1071  1E2A                     	;# 
  1072  1E2B                     	;# 
  1073  1E2C                     	;# 
  1074  1E2D                     	;# 
  1075  1E2E                     	;# 
  1076  1E2F                     	;# 
  1077  1E30                     	;# 
  1078  1E31                     	;# 
  1079  1E32                     	;# 
  1080  1E33                     	;# 
  1081  1E34                     	;# 
  1082  1E35                     	;# 
  1083  1E36                     	;# 
  1084  1E37                     	;# 
  1085  1E8F                     	;# 
  1086  1E90                     	;# 
  1087  1E91                     	;# 
  1088  1E92                     	;# 
  1089  1E93                     	;# 
  1090  1E9C                     	;# 
  1091  1EA1                     	;# 
  1092  1EA2                     	;# 
  1093  1EB1                     	;# 
  1094  1EBB                     	;# 
  1095  1EBC                     	;# 
  1096  1EBD                     	;# 
  1097  1EBE                     	;# 
  1098  1EC3                     	;# 
  1099  1EC5                     	;# 
  1100  1EC6                     	;# 
  1101  1EC7                     	;# 
  1102  1ECB                     	;# 
  1103  1ECC                     	;# 
  1104  1F10                     	;# 
  1105  1F11                     	;# 
  1106  1F12                     	;# 
  1107  1F13                     	;# 
  1108  1F14                     	;# 
  1109  1F15                     	;# 
  1110  1F38                     	;# 
  1111  1F39                     	;# 
  1112  1F3A                     	;# 
  1113  1F3B                     	;# 
  1114  1F3C                     	;# 
  1115  1F3D                     	;# 
  1116  1F3E                     	;# 
  1117  1F3F                     	;# 
  1118  1FE4                     	;# 
  1119  1FE5                     	;# 
  1120  1FE6                     	;# 
  1121  1FE7                     	;# 
  1122  1FE8                     	;# 
  1123  1FE8                     	;# 
  1124  1FE9                     	;# 
  1125  1FEA                     	;# 
  1126  1FEA                     	;# 
  1127  1FEB                     	;# 
  1128  1FED                     	;# 
  1129  1FEE                     	;# 
  1130  1FEF                     	;# 
  1131  0000                     	;# 
  1132  0001                     	;# 
  1133  0002                     	;# 
  1134  0003                     	;# 
  1135  0004                     	;# 
  1136  0005                     	;# 
  1137  0006                     	;# 
  1138  0007                     	;# 
  1139  0008                     	;# 
  1140  0009                     	;# 
  1141  000A                     	;# 
  1142  000B                     	;# 
  1143  000C                     	;# 
  1144  0012                     	;# 
  1145  0018                     	;# 
  1146  009B                     	;# 
  1147  009B                     	;# 
  1148  009C                     	;# 
  1149  009D                     	;# 
  1150  009E                     	;# 
  1151  009F                     	;# 
  1152  0119                     	;# 
  1153  0119                     	;# 
  1154  0119                     	;# 
  1155  011A                     	;# 
  1156  011A                     	;# 
  1157  011A                     	;# 
  1158  011B                     	;# 
  1159  011B                     	;# 
  1160  011B                     	;# 
  1161  011B                     	;# 
  1162  011B                     	;# 
  1163  011C                     	;# 
  1164  011C                     	;# 
  1165  011C                     	;# 
  1166  011D                     	;# 
  1167  011D                     	;# 
  1168  011D                     	;# 
  1169  011E                     	;# 
  1170  011E                     	;# 
  1171  011E                     	;# 
  1172  011F                     	;# 
  1173  011F                     	;# 
  1174  011F                     	;# 
  1175  011F                     	;# 
  1176  011F                     	;# 
  1177  018C                     	;# 
  1178  018D                     	;# 
  1179  018E                     	;# 
  1180  018F                     	;# 
  1181  0190                     	;# 
  1182  0191                     	;# 
  1183  0192                     	;# 
  1184  020C                     	;# 
  1185  020C                     	;# 
  1186  020D                     	;# 
  1187  020E                     	;# 
  1188  020F                     	;# 
  1189  020F                     	;# 
  1190  0210                     	;# 
  1191  0210                     	;# 
  1192  0211                     	;# 
  1193  0211                     	;# 
  1194  028C                     	;# 
  1195  028C                     	;# 
  1196  028D                     	;# 
  1197  028D                     	;# 
  1198  028E                     	;# 
  1199  028F                     	;# 
  1200  0290                     	;# 
  1201  0291                     	;# 
  1202  030C                     	;# 
  1203  030C                     	;# 
  1204  030D                     	;# 
  1205  030E                     	;# 
  1206  030F                     	;# 
  1207  0310                     	;# 
  1208  0310                     	;# 
  1209  0311                     	;# 
  1210  0312                     	;# 
  1211  0313                     	;# 
  1212  0314                     	;# 
  1213  0314                     	;# 
  1214  0315                     	;# 
  1215  0316                     	;# 
  1216  0318                     	;# 
  1217  0318                     	;# 
  1218  0319                     	;# 
  1219  031A                     	;# 
  1220  031C                     	;# 
  1221  031C                     	;# 
  1222  031D                     	;# 
  1223  031E                     	;# 
  1224  038C                     	;# 
  1225  038C                     	;# 
  1226  038D                     	;# 
  1227  038E                     	;# 
  1228  058C                     	;# 
  1229  058C                     	;# 
  1230  058D                     	;# 
  1231  058E                     	;# 
  1232  058F                     	;# 
  1233  058F                     	;# 
  1234  0590                     	;# 
  1235  0591                     	;# 
  1236  0592                     	;# 
  1237  0593                     	;# 
  1238  059C                     	;# 
  1239  059C                     	;# 
  1240  059D                     	;# 
  1241  059D                     	;# 
  1242  059E                     	;# 
  1243  059F                     	;# 
  1244  060C                     	;# 
  1245  060D                     	;# 
  1246  060E                     	;# 
  1247  060F                     	;# 
  1248  0610                     	;# 
  1249  0611                     	;# 
  1250  0612                     	;# 
  1251  0613                     	;# 
  1252  0614                     	;# 
  1253  070C                     	;# 
  1254  070D                     	;# 
  1255  070E                     	;# 
  1256  070F                     	;# 
  1257  0710                     	;# 
  1258  0711                     	;# 
  1259  0712                     	;# 
  1260  0713                     	;# 
  1261  0716                     	;# 
  1262  0717                     	;# 
  1263  0718                     	;# 
  1264  0719                     	;# 
  1265  071A                     	;# 
  1266  071B                     	;# 
  1267  071C                     	;# 
  1268  071D                     	;# 
  1269  0796                     	;# 
  1270  0797                     	;# 
  1271  0798                     	;# 
  1272  0799                     	;# 
  1273  079A                     	;# 
  1274  079B                     	;# 
  1275  080C                     	;# 
  1276  080D                     	;# 
  1277  080E                     	;# 
  1278  080F                     	;# 
  1279  0810                     	;# 
  1280  0811                     	;# 
  1281  0812                     	;# 
  1282  0813                     	;# 
  1283  0814                     	;# 
  1284  081A                     	;# 
  1285  081A                     	;# 
  1286  081B                     	;# 
  1287  081C                     	;# 
  1288  081C                     	;# 
  1289  081D                     	;# 
  1290  081E                     	;# 
  1291  081F                     	;# 
  1292  088C                     	;# 
  1293  088D                     	;# 
  1294  088E                     	;# 
  1295  088F                     	;# 
  1296  0890                     	;# 
  1297  0891                     	;# 
  1298  0892                     	;# 
  1299  0893                     	;# 
  1300  0895                     	;# 
  1301  0896                     	;# 
  1302  090C                     	;# 
  1303  090E                     	;# 
  1304  090F                     	;# 
  1305  091F                     	;# 
  1306  098F                     	;# 
  1307  098F                     	;# 
  1308  0990                     	;# 
  1309  0991                     	;# 
  1310  0992                     	;# 
  1311  0993                     	;# 
  1312  1E0F                     	;# 
  1313  1E10                     	;# 
  1314  1E11                     	;# 
  1315  1E12                     	;# 
  1316  1E13                     	;# 
  1317  1E14                     	;# 
  1318  1E15                     	;# 
  1319  1E16                     	;# 
  1320  1E17                     	;# 
  1321  1E18                     	;# 
  1322  1E19                     	;# 
  1323  1E1A                     	;# 
  1324  1E1B                     	;# 
  1325  1E1C                     	;# 
  1326  1E1D                     	;# 
  1327  1E1E                     	;# 
  1328  1E1F                     	;# 
  1329  1E20                     	;# 
  1330  1E21                     	;# 
  1331  1E22                     	;# 
  1332  1E23                     	;# 
  1333  1E24                     	;# 
  1334  1E25                     	;# 
  1335  1E26                     	;# 
  1336  1E27                     	;# 
  1337  1E28                     	;# 
  1338  1E29                     	;# 
  1339  1E2A                     	;# 
  1340  1E2B                     	;# 
  1341  1E2C                     	;# 
  1342  1E2D                     	;# 
  1343  1E2E                     	;# 
  1344  1E2F                     	;# 
  1345  1E30                     	;# 
  1346  1E31                     	;# 
  1347  1E32                     	;# 
  1348  1E33                     	;# 
  1349  1E34                     	;# 
  1350  1E35                     	;# 
  1351  1E36                     	;# 
  1352  1E37                     	;# 
  1353  1E8F                     	;# 
  1354  1E90                     	;# 
  1355  1E91                     	;# 
  1356  1E92                     	;# 
  1357  1E93                     	;# 
  1358  1E9C                     	;# 
  1359  1EA1                     	;# 
  1360  1EA2                     	;# 
  1361  1EB1                     	;# 
  1362  1EBB                     	;# 
  1363  1EBC                     	;# 
  1364  1EBD                     	;# 
  1365  1EBE                     	;# 
  1366  1EC3                     	;# 
  1367  1EC5                     	;# 
  1368  1EC6                     	;# 
  1369  1EC7                     	;# 
  1370  1ECB                     	;# 
  1371  1ECC                     	;# 
  1372  1F10                     	;# 
  1373  1F11                     	;# 
  1374  1F12                     	;# 
  1375  1F13                     	;# 
  1376  1F14                     	;# 
  1377  1F15                     	;# 
  1378  1F38                     	;# 
  1379  1F39                     	;# 
  1380  1F3A                     	;# 
  1381  1F3B                     	;# 
  1382  1F3C                     	;# 
  1383  1F3D                     	;# 
  1384  1F3E                     	;# 
  1385  1F3F                     	;# 
  1386  1FE4                     	;# 
  1387  1FE5                     	;# 
  1388  1FE6                     	;# 
  1389  1FE7                     	;# 
  1390  1FE8                     	;# 
  1391  1FE8                     	;# 
  1392  1FE9                     	;# 
  1393  1FEA                     	;# 
  1394  1FEA                     	;# 
  1395  1FEB                     	;# 
  1396  1FED                     	;# 
  1397  1FEE                     	;# 
  1398  1FEF                     	;# 
  1399  0012                     _TRISA	set	18
  1400  0018                     _LATA	set	24
  1401  000B                     _INTCONbits	set	11
  1402  0018                     _LATAbits	set	24
  1403  000C                     _PORTAbits	set	12
  1404  005F                     _GIE	set	95
  1405  059E                     _T0CON0bits	set	1438
  1406  059E                     _T0CON0	set	1438
  1407  059C                     _TMR0L	set	1436
  1408  059D                     _TMR0H	set	1437
  1409  059F                     _T0CON1	set	1439
  1410  0716                     _PIE0bits	set	1814
  1411  070C                     _PIR0bits	set	1804
  1412  38B4                     _IOCIE	set	14516
  1413  079B                     _PMD5	set	1947
  1414  079A                     _PMD4	set	1946
  1415  0799                     _PMD3	set	1945
  1416  0798                     _PMD2	set	1944
  1417  0797                     _PMD1	set	1943
  1418  0796                     _PMD0	set	1942
  1419  088C                     _CPUDOZE	set	2188
  1420  0892                     _OSCTUNE	set	2194
  1421  0890                     _OSCSTAT	set	2192
  1422  0893                     _OSCFRQ	set	2195
  1423  0891                     _OSCEN	set	2193
  1424  088F                     _OSCCON3	set	2191
  1425  088D                     _OSCCON1	set	2189
  1426  1F3C                     _INLVLA	set	7996
  1427  1F3B                     _SLRCONA	set	7995
  1428  1F3A                     _ODCONA	set	7994
  1429  1F39                     _WPUA	set	7993
  1430  1F38                     _ANSELA	set	7992
  1431  1F3F                     _IOCAF	set	7999
  1432  F9F0                     _IOCAN0	set	63984
  1433                           
  1434                           ; #config settings
  1435  0000                     
  1436                           	psect	cinit
  1437  0015                     start_initialization:	
  1438  0015                     __initialization:	
  1439                           
  1440                           ; Clear objects allocated to COMMON
  1441  0015  01F0               	clrf	__pbssCOMMON& (0+127)
  1442  0016  01F1               	clrf	(__pbssCOMMON+1)& (0+127)
  1443  0017  01F2               	clrf	(__pbssCOMMON+2)& (0+127)
  1444  0018  01F3               	clrf	(__pbssCOMMON+3)& (0+127)
  1445  0019  01F4               	clrf	(__pbssCOMMON+4)& (0+127)
  1446  001A  01F5               	clrf	(__pbssCOMMON+5)& (0+127)
  1447  001B  01F6               	clrf	(__pbssCOMMON+6)& (0+127)
  1448  001C  01F7               	clrf	(__pbssCOMMON+7)& (0+127)
  1449  001D  01F8               	clrf	(__pbssCOMMON+8)& (0+127)
  1450                           
  1451                           ; Clear objects allocated to BANK0
  1452  001E  0140               	movlb	0	; select bank0
  1453  001F  01A0               	clrf	__pbssBANK0& (0+127)
  1454  0020  01A1               	clrf	(__pbssBANK0+1)& (0+127)
  1455  0021                     end_of_initialization:	
  1456                           ;End of C runtime variable initialization code
  1457                           
  1458  0021                     __end_of__initialization:	
  1459  0021  107E               	bcf	int$flags,0	;clear compiler interrupt flag (level 1)
  1460  0022  0140               	movlb	0
  1461  0023  28D2               	ljmp	_main	;jump to C main() function
  1462                           
  1463                           	psect	bssCOMMON
  1464  0070                     __pbssCOMMON:	
  1465  0070                     _u16_SwTimer:	
  1466  0070                     	ds	4
  1467  0074                     _u16_MinutesElapsed:	
  1468  0074                     	ds	2
  1469  0076                     _ms_MainFSM:	
  1470  0076                     	ds	1
  1471  0077                     _u1_InWater:	
  1472  0077                     	ds	1
  1473  0078                     _u1_TimerIsrOcured:	
  1474  0078                     	ds	1
  1475                           
  1476                           	psect	bssBANK0
  1477  0020                     __pbssBANK0:	
  1478  0020                     _u16_Timeout:	
  1479  0020                     	ds	2
  1480                           
  1481                           	psect	cstackCOMMON
  1482  0079                     __pcstackCOMMON:	
  1483  0079                     ?_TMR0_StopTimer:	
  1484  0079                     ?_TMR0_StartTimer:	
  1485                           ; 1 bytes @ 0x0
  1486                           
  1487  0079                     ?_SYSTEM_Initialize:	
  1488                           ; 1 bytes @ 0x0
  1489                           
  1490  0079                     ?_PIN_MANAGER_Initialize:	
  1491                           ; 1 bytes @ 0x0
  1492                           
  1493  0079                     ?_TMR0_Initialize:	
  1494                           ; 1 bytes @ 0x0
  1495                           
  1496  0079                     ?_PrepareSleep:	
  1497                           ; 1 bytes @ 0x0
  1498                           
  1499  0079                     ?_PrepareRun:	
  1500                           ; 1 bytes @ 0x0
  1501                           
  1502  0079                     ?_MySwTimer:	
  1503                           ; 1 bytes @ 0x0
  1504                           
  1505  0079                     ?_MainFSM:	
  1506                           ; 1 bytes @ 0x0
  1507                           
  1508  0079                     ?_HandleSleep:	
  1509                           ; 1 bytes @ 0x0
  1510                           
  1511  0079                     ?_main:	
  1512                           ; 1 bytes @ 0x0
  1513                           
  1514  0079                     ?_TMR0_ISR:	
  1515                           ; 1 bytes @ 0x0
  1516                           
  1517  0079                     ??_TMR0_ISR:	
  1518                           ; 1 bytes @ 0x0
  1519                           
  1520  0079                     ?_INTERRUPT_InterruptManager:	
  1521                           ; 1 bytes @ 0x0
  1522                           
  1523  0079                     ?_PMD_Initialize:	
  1524                           ; 1 bytes @ 0x0
  1525                           
  1526  0079                     ?_OSCILLATOR_Initialize:	
  1527                           ; 1 bytes @ 0x0
  1528                           
  1529                           
  1530                           ; 1 bytes @ 0x0
  1531  0079                     	ds	1
  1532  007A                     ??_TMR0_StopTimer:	
  1533  007A                     ??_TMR0_StartTimer:	
  1534                           ; 1 bytes @ 0x1
  1535                           
  1536  007A                     ??_SYSTEM_Initialize:	
  1537                           ; 1 bytes @ 0x1
  1538                           
  1539  007A                     ??_PIN_MANAGER_Initialize:	
  1540                           ; 1 bytes @ 0x1
  1541                           
  1542  007A                     ??_TMR0_Initialize:	
  1543                           ; 1 bytes @ 0x1
  1544                           
  1545  007A                     ??_PrepareSleep:	
  1546                           ; 1 bytes @ 0x1
  1547                           
  1548  007A                     ??_PrepareRun:	
  1549                           ; 1 bytes @ 0x1
  1550                           
  1551  007A                     ??_MySwTimer:	
  1552                           ; 1 bytes @ 0x1
  1553                           
  1554  007A                     ??_MainFSM:	
  1555                           ; 1 bytes @ 0x1
  1556                           
  1557  007A                     ??_HandleSleep:	
  1558                           ; 1 bytes @ 0x1
  1559                           
  1560  007A                     ??_INTERRUPT_InterruptManager:	
  1561                           ; 1 bytes @ 0x1
  1562                           
  1563  007A                     ??_PMD_Initialize:	
  1564                           ; 1 bytes @ 0x1
  1565                           
  1566  007A                     ??_OSCILLATOR_Initialize:	
  1567                           ; 1 bytes @ 0x1
  1568                           
  1569                           
  1570                           ; 1 bytes @ 0x1
  1571  007A                     	ds	2
  1572  007C                     MySwTimer@lu8_i:	
  1573                           
  1574                           ; 1 bytes @ 0x3
  1575  007C                     	ds	1
  1576  007D                     ??_main:	
  1577                           
  1578                           	psect	maintext
  1579  00D2                     __pmaintext:	
  1580                           ; 1 bytes @ 0x4
  1581 ;;
  1582 ;;Main: autosize = 0, tempsize = 0, incstack = 0, save=0
  1583 ;;
  1584 ;; *************** function _main *****************
  1585 ;; Defined at:
  1586 ;;		line 226 in file "main.c"
  1587 ;; Parameters:    Size  Location     Type
  1588 ;;		None
  1589 ;; Auto vars:     Size  Location     Type
  1590 ;;		None
  1591 ;; Return value:  Size  Location     Type
  1592 ;;                  1    wreg      void 
  1593 ;; Registers used:
  1594 ;;		wreg, fsr0l, fsr0h, fsr1l, fsr1h, status,2, status,0, pclath, cstack
  1595 ;; Tracked objects:
  1596 ;;		On entry : B3F/0
  1597 ;;		On exit  : 0/0
  1598 ;;		Unchanged: 0/0
  1599 ;; Data sizes:     COMMON   BANK0   BANK1   BANK2
  1600 ;;      Params:         0       0       0       0
  1601 ;;      Locals:         0       0       0       0
  1602 ;;      Temps:          0       0       0       0
  1603 ;;      Totals:         0       0       0       0
  1604 ;;Total ram usage:        0 bytes
  1605 ;; Hardware stack levels required when called:    5
  1606 ;; This function calls:
  1607 ;;		_HandleSleep
  1608 ;;		_MainFSM
  1609 ;;		_MySwTimer
  1610 ;;		_PIN_MANAGER_Initialize
  1611 ;;		_SYSTEM_Initialize
  1612 ;;		_TMR0_Initialize
  1613 ;; This function is called by:
  1614 ;;		Startup code after reset
  1615 ;; This function uses a non-reentrant model
  1616 ;;
  1617                           
  1618                           
  1619                           ;psect for function _main
  1620  00D2                     _main:	
  1621  00D2                     l956:	
  1622                           ;incstack = 0
  1623                           ; Regs used in _main: [wreg-fsr1h+status,2+status,0+pclath+cstack]
  1624                           
  1625                           
  1626                           ;main.c: 228:   SYSTEM_Initialize();
  1627  00D2  3181  215C  3180   	fcall	_SYSTEM_Initialize
  1628                           
  1629                           ;main.c: 229:   PIN_MANAGER_Initialize();
  1630  00D5  3181  2120  3180   	fcall	_PIN_MANAGER_Initialize
  1631                           
  1632                           ;main.c: 230:   TMR0_Initialize();
  1633  00D8  3181  2112  3180   	fcall	_TMR0_Initialize
  1634  00DB                     l958:	
  1635                           
  1636                           ;main.c: 231:   (INTCONbits.GIE = 1);
  1637  00DB  178B               	bsf	11,7	;volatile
  1638  00DC                     l960:	
  1639                           
  1640                           ;main.c: 232:   (INTCONbits.PEIE = 1);
  1641  00DC  170B               	bsf	11,6	;volatile
  1642  00DD                     l962:	
  1643                           
  1644                           ;main.c: 233:   u16_SwTimer[1]=(60000u);
  1645  00DD  3060               	movlw	96
  1646  00DE  00F2               	movwf	_u16_SwTimer+2
  1647  00DF  30EA               	movlw	234
  1648  00E0  00F3               	movwf	_u16_SwTimer+3
  1649  00E1                     l964:	
  1650                           
  1651                           ;main.c: 236:   {;main.c: 237:     if((0u) != u1_TimerIsrOcured)
  1652  00E1  0878               	movf	_u1_TimerIsrOcured,w	;volatile
  1653  00E2  1903               	btfsc	3,2
  1654  00E3  28E5               	goto	u221
  1655  00E4  28E6               	goto	u220
  1656  00E5                     u221:	
  1657  00E5  28E1               	goto	l964
  1658  00E6                     u220:	
  1659  00E6                     l966:	
  1660                           
  1661                           ;main.c: 238:     {;main.c: 240:       u1_TimerIsrOcured = (0u);
  1662  00E6  01F8               	clrf	_u1_TimerIsrOcured	;volatile
  1663  00E7                     l968:	
  1664                           
  1665                           ;main.c: 241:       MySwTimer();
  1666  00E7  3180  20F2  3180   	fcall	_MySwTimer
  1667  00EA                     l970:	
  1668                           
  1669                           ;main.c: 242:       MainFSM();
  1670  00EA  3180  2024  3180   	fcall	_MainFSM
  1671  00ED                     l972:	
  1672                           
  1673                           ;main.c: 243:       HandleSleep();
  1674  00ED  3180  2089  3180   	fcall	_HandleSleep
  1675  00F0  28E1               	goto	l964
  1676  00F1  2814               	ljmp	start
  1677  00F2                     __end_of_main:	
  1678                           
  1679                           	psect	text1
  1680  0112                     __ptext1:	
  1681 ;; *************** function _TMR0_Initialize *****************
  1682 ;; Defined at:
  1683 ;;		line 27 in file "tmr0.c"
  1684 ;; Parameters:    Size  Location     Type
  1685 ;;		None
  1686 ;; Auto vars:     Size  Location     Type
  1687 ;;		None
  1688 ;; Return value:  Size  Location     Type
  1689 ;;                  1    wreg      void 
  1690 ;; Registers used:
  1691 ;;		wreg
  1692 ;; Tracked objects:
  1693 ;;		On entry : 0/0
  1694 ;;		On exit  : 0/0
  1695 ;;		Unchanged: 0/0
  1696 ;; Data sizes:     COMMON   BANK0   BANK1   BANK2
  1697 ;;      Params:         0       0       0       0
  1698 ;;      Locals:         0       0       0       0
  1699 ;;      Temps:          0       0       0       0
  1700 ;;      Totals:         0       0       0       0
  1701 ;;Total ram usage:        0 bytes
  1702 ;; Hardware stack levels used:    1
  1703 ;; Hardware stack levels required when called:    2
  1704 ;; This function calls:
  1705 ;;		Nothing
  1706 ;; This function is called by:
  1707 ;;		_main
  1708 ;; This function uses a non-reentrant model
  1709 ;;
  1710                           
  1711                           
  1712                           ;psect for function _TMR0_Initialize
  1713  0112                     _TMR0_Initialize:	
  1714  0112                     l848:	
  1715                           ;incstack = 0
  1716                           ; Regs used in _TMR0_Initialize: [wreg]
  1717                           
  1718                           
  1719                           ;tmr0.c: 29:     T0CON1 = 0x72;
  1720  0112  3072               	movlw	114
  1721  0113  014B               	movlb	11	; select bank11
  1722  0114  009F               	movwf	31	;volatile
  1723                           
  1724                           ;tmr0.c: 30:     TMR0H = (0xFC);
  1725  0115  30FC               	movlw	252
  1726  0116  009D               	movwf	29	;volatile
  1727                           
  1728                           ;tmr0.c: 31:     TMR0L = (0x7B);
  1729  0117  307B               	movlw	123
  1730  0118  009C               	movwf	28	;volatile
  1731  0119                     l850:	
  1732                           
  1733                           ;tmr0.c: 32:     PIR0bits.TMR0IF = 0;
  1734  0119  014E               	movlb	14	; select bank14
  1735  011A  128C               	bcf	12,5	;volatile
  1736  011B                     l852:	
  1737                           
  1738                           ;tmr0.c: 33:     PIE0bits.TMR0IE = 1;
  1739  011B  1696               	bsf	22,5	;volatile
  1740                           
  1741                           ;tmr0.c: 34:     T0CON0 = 0x90;
  1742  011C  3090               	movlw	144
  1743  011D  014B               	movlb	11	; select bank11
  1744  011E  009E               	movwf	30	;volatile
  1745  011F                     l120:	
  1746  011F  0008               	return
  1747  0120                     __end_of_TMR0_Initialize:	
  1748                           
  1749                           	psect	text2
  1750  015C                     __ptext2:	
  1751 ;; *************** function _SYSTEM_Initialize *****************
  1752 ;; Defined at:
  1753 ;;		line 84 in file "mcc.c"
  1754 ;; Parameters:    Size  Location     Type
  1755 ;;		None
  1756 ;; Auto vars:     Size  Location     Type
  1757 ;;		None
  1758 ;; Return value:  Size  Location     Type
  1759 ;;                  1    wreg      void 
  1760 ;; Registers used:
  1761 ;;		wreg, status,2, status,0, pclath, cstack
  1762 ;; Tracked objects:
  1763 ;;		On entry : 0/0
  1764 ;;		On exit  : 0/0
  1765 ;;		Unchanged: 0/0
  1766 ;; Data sizes:     COMMON   BANK0   BANK1   BANK2
  1767 ;;      Params:         0       0       0       0
  1768 ;;      Locals:         0       0       0       0
  1769 ;;      Temps:          0       0       0       0
  1770 ;;      Totals:         0       0       0       0
  1771 ;;Total ram usage:        0 bytes
  1772 ;; Hardware stack levels used:    1
  1773 ;; Hardware stack levels required when called:    3
  1774 ;; This function calls:
  1775 ;;		_OSCILLATOR_Initialize
  1776 ;;		_PMD_Initialize
  1777 ;; This function is called by:
  1778 ;;		_main
  1779 ;; This function uses a non-reentrant model
  1780 ;;
  1781                           
  1782                           
  1783                           ;psect for function _SYSTEM_Initialize
  1784  015C                     _SYSTEM_Initialize:	
  1785  015C                     l830:	
  1786                           ;incstack = 0
  1787                           ; Regs used in _SYSTEM_Initialize: [wreg+status,2+status,0+pclath+cstack]
  1788                           
  1789  015C  0151               	movlb	17	; select bank17
  1790  015D  018C               	clrf	12	;volatile
  1791  015E                     l832:	
  1792  015E  3181  2165  3181   	fcall	_PMD_Initialize
  1793  0161                     l834:	
  1794  0161  3181  2148  3181   	fcall	_OSCILLATOR_Initialize
  1795  0164                     l194:	
  1796  0164  0008               	return
  1797  0165                     __end_of_SYSTEM_Initialize:	
  1798                           
  1799                           	psect	text3
  1800  0165                     __ptext3:	
  1801 ;; *************** function _PMD_Initialize *****************
  1802 ;; Defined at:
  1803 ;;		line 62 in file "mcc.c"
  1804 ;; Parameters:    Size  Location     Type
  1805 ;;		None
  1806 ;; Auto vars:     Size  Location     Type
  1807 ;;		None
  1808 ;; Return value:  Size  Location     Type
  1809 ;;                  1    wreg      void 
  1810 ;; Registers used:
  1811 ;;		status,2
  1812 ;; Tracked objects:
  1813 ;;		On entry : 0/0
  1814 ;;		On exit  : 0/0
  1815 ;;		Unchanged: 0/0
  1816 ;; Data sizes:     COMMON   BANK0   BANK1   BANK2
  1817 ;;      Params:         0       0       0       0
  1818 ;;      Locals:         0       0       0       0
  1819 ;;      Temps:          0       0       0       0
  1820 ;;      Totals:         0       0       0       0
  1821 ;;Total ram usage:        0 bytes
  1822 ;; Hardware stack levels used:    1
  1823 ;; Hardware stack levels required when called:    2
  1824 ;; This function calls:
  1825 ;;		Nothing
  1826 ;; This function is called by:
  1827 ;;		_SYSTEM_Initialize
  1828 ;; This function uses a non-reentrant model
  1829 ;;
  1830                           
  1831                           
  1832                           ;psect for function _PMD_Initialize
  1833  0165                     _PMD_Initialize:	
  1834  0165                     l746:	
  1835                           ;incstack = 0
  1836                           ; Regs used in _PMD_Initialize: [status,2]
  1837                           
  1838  0165  014F               	movlb	15	; select bank15
  1839  0166  0196               	clrf	22	;volatile
  1840  0167  0197               	clrf	23	;volatile
  1841  0168  0198               	clrf	24	;volatile
  1842  0169  0199               	clrf	25	;volatile
  1843  016A  019A               	clrf	26	;volatile
  1844  016B  019B               	clrf	27	;volatile
  1845  016C                     l188:	
  1846  016C  0008               	return
  1847  016D                     __end_of_PMD_Initialize:	
  1848                           
  1849                           	psect	text4
  1850  0148                     __ptext4:	
  1851 ;; *************** function _OSCILLATOR_Initialize *****************
  1852 ;; Defined at:
  1853 ;;		line 73 in file "mcc.c"
  1854 ;; Parameters:    Size  Location     Type
  1855 ;;		None
  1856 ;; Auto vars:     Size  Location     Type
  1857 ;;		None
  1858 ;; Return value:  Size  Location     Type
  1859 ;;                  1    wreg      void 
  1860 ;; Registers used:
  1861 ;;		wreg, status,2
  1862 ;; Tracked objects:
  1863 ;;		On entry : 0/0
  1864 ;;		On exit  : 0/0
  1865 ;;		Unchanged: 0/0
  1866 ;; Data sizes:     COMMON   BANK0   BANK1   BANK2
  1867 ;;      Params:         0       0       0       0
  1868 ;;      Locals:         0       0       0       0
  1869 ;;      Temps:          0       0       0       0
  1870 ;;      Totals:         0       0       0       0
  1871 ;;Total ram usage:        0 bytes
  1872 ;; Hardware stack levels used:    1
  1873 ;; Hardware stack levels required when called:    2
  1874 ;; This function calls:
  1875 ;;		Nothing
  1876 ;; This function is called by:
  1877 ;;		_SYSTEM_Initialize
  1878 ;; This function uses a non-reentrant model
  1879 ;;
  1880                           
  1881                           
  1882                           ;psect for function _OSCILLATOR_Initialize
  1883  0148                     _OSCILLATOR_Initialize:	
  1884  0148                     l748:	
  1885                           ;incstack = 0
  1886                           ; Regs used in _OSCILLATOR_Initialize: [wreg+status,2]
  1887                           
  1888  0148  3062               	movlw	98
  1889  0149  0151               	movlb	17	; select bank17
  1890  014A  008D               	movwf	13	;volatile
  1891  014B                     l750:	
  1892  014B  018F               	clrf	15	;volatile
  1893  014C                     l752:	
  1894  014C  0191               	clrf	17	;volatile
  1895  014D  3002               	movlw	2
  1896  014E  0093               	movwf	19	;volatile
  1897  014F                     l754:	
  1898  014F  0190               	clrf	16	;volatile
  1899  0150                     l756:	
  1900  0150  0192               	clrf	18	;volatile
  1901  0151                     l191:	
  1902  0151  0008               	return
  1903  0152                     __end_of_OSCILLATOR_Initialize:	
  1904                           
  1905                           	psect	text5
  1906  0120                     __ptext5:	
  1907 ;; *************** function _PIN_MANAGER_Initialize *****************
  1908 ;; Defined at:
  1909 ;;		line 11 in file "pin_manager.c"
  1910 ;; Parameters:    Size  Location     Type
  1911 ;;		None
  1912 ;; Auto vars:     Size  Location     Type
  1913 ;;		None
  1914 ;; Return value:  Size  Location     Type
  1915 ;;                  1    wreg      void 
  1916 ;; Registers used:
  1917 ;;		wreg, status,2
  1918 ;; Tracked objects:
  1919 ;;		On entry : 0/0
  1920 ;;		On exit  : 0/0
  1921 ;;		Unchanged: 0/0
  1922 ;; Data sizes:     COMMON   BANK0   BANK1   BANK2
  1923 ;;      Params:         0       0       0       0
  1924 ;;      Locals:         0       0       0       0
  1925 ;;      Temps:          0       0       0       0
  1926 ;;      Totals:         0       0       0       0
  1927 ;;Total ram usage:        0 bytes
  1928 ;; Hardware stack levels used:    1
  1929 ;; Hardware stack levels required when called:    2
  1930 ;; This function calls:
  1931 ;;		Nothing
  1932 ;; This function is called by:
  1933 ;;		_main
  1934 ;; This function uses a non-reentrant model
  1935 ;;
  1936                           
  1937                           
  1938                           ;psect for function _PIN_MANAGER_Initialize
  1939  0120                     _PIN_MANAGER_Initialize:	
  1940  0120                     l836:	
  1941                           ;incstack = 0
  1942                           ; Regs used in _PIN_MANAGER_Initialize: [wreg+status,2]
  1943                           
  1944                           
  1945                           ;pin_manager.c: 13:     LATA = 0x00;
  1946  0120  0140               	movlb	0	; select bank0
  1947  0121  0198               	clrf	24	;volatile
  1948  0122                     l838:	
  1949                           
  1950                           ;pin_manager.c: 14:     TRISA = 0x01;
  1951  0122  3001               	movlw	1
  1952  0123  0092               	movwf	18	;volatile
  1953  0124                     l840:	
  1954                           
  1955                           ;pin_manager.c: 15:     ANSELA = 0x0;
  1956  0124  017E               	movlb	62	; select bank62
  1957  0125  01B8               	clrf	56	;volatile
  1958                           
  1959                           ;pin_manager.c: 16:     WPUA = 0x01;
  1960  0126  3001               	movlw	1
  1961  0127  00B9               	movwf	57	;volatile
  1962  0128                     l842:	
  1963                           
  1964                           ;pin_manager.c: 17:     ODCONA = 0x00;
  1965  0128  01BA               	clrf	58	;volatile
  1966  0129                     l844:	
  1967                           
  1968                           ;pin_manager.c: 18:     SLRCONA = 0x37;
  1969  0129  3037               	movlw	55
  1970  012A  00BB               	movwf	59	;volatile
  1971  012B                     l846:	
  1972                           
  1973                           ;pin_manager.c: 19:     INLVLA = 0x3F;
  1974  012B  303F               	movlw	63
  1975  012C  00BC               	movwf	60	;volatile
  1976  012D                     l159:	
  1977  012D  0008               	return
  1978  012E                     __end_of_PIN_MANAGER_Initialize:	
  1979                           
  1980                           	psect	text6
  1981  00F2                     __ptext6:	
  1982 ;; *************** function _MySwTimer *****************
  1983 ;; Defined at:
  1984 ;;		line 119 in file "main.c"
  1985 ;; Parameters:    Size  Location     Type
  1986 ;;		None
  1987 ;; Auto vars:     Size  Location     Type
  1988 ;;  lu8_i           1    3[COMMON] unsigned char 
  1989 ;; Return value:  Size  Location     Type
  1990 ;;                  1    wreg      void 
  1991 ;; Registers used:
  1992 ;;		wreg, fsr1l, fsr1h, status,2, status,0
  1993 ;; Tracked objects:
  1994 ;;		On entry : 0/0
  1995 ;;		On exit  : 0/0
  1996 ;;		Unchanged: 0/0
  1997 ;; Data sizes:     COMMON   BANK0   BANK1   BANK2
  1998 ;;      Params:         0       0       0       0
  1999 ;;      Locals:         1       0       0       0
  2000 ;;      Temps:          2       0       0       0
  2001 ;;      Totals:         3       0       0       0
  2002 ;;Total ram usage:        3 bytes
  2003 ;; Hardware stack levels used:    1
  2004 ;; Hardware stack levels required when called:    2
  2005 ;; This function calls:
  2006 ;;		Nothing
  2007 ;; This function is called by:
  2008 ;;		_main
  2009 ;; This function uses a non-reentrant model
  2010 ;;
  2011                           
  2012                           
  2013                           ;psect for function _MySwTimer
  2014  00F2                     _MySwTimer:	
  2015  00F2                     l758:	
  2016                           ;incstack = 0
  2017                           ; Regs used in _MySwTimer: [wreg+fsr1l+fsr1h+status,2+status,0]
  2018                           
  2019                           
  2020                           ;main.c: 121:   unsigned char lu8_i;;main.c: 123:   for (lu8_i = 0; lu8_i < (2u); lu8_i+
      +                          +)
  2021  00F2  01FC               	clrf	MySwTimer@lu8_i
  2022  00F3                     l764:	
  2023                           
  2024                           ;main.c: 124:   {;main.c: 125:     if (0 != u16_SwTimer[lu8_i])
  2025  00F3  357C               	lslf	MySwTimer@lu8_i,w
  2026  00F4  3E70               	addlw	(low (_u16_SwTimer| 0))& (0+255)
  2027  00F5  0086               	movwf	6
  2028  00F6  0187               	clrf	7
  2029  00F7  0016               	moviw fsr1++
  2030  00F8  0401               	iorwf	1,w
  2031  00F9  1903               	btfsc	3,2
  2032  00FA  28FC               	goto	u11
  2033  00FB  28FD               	goto	u10
  2034  00FC                     u11:	
  2035  00FC  2907               	goto	l768
  2036  00FD                     u10:	
  2037  00FD                     l766:	
  2038                           
  2039                           ;main.c: 126:     {;main.c: 127:       u16_SwTimer[lu8_i]--;
  2040  00FD  357C               	lslf	MySwTimer@lu8_i,w
  2041  00FE  3E70               	addlw	(low (_u16_SwTimer| 0))& (0+255)
  2042  00FF  0086               	movwf	6
  2043  0100  0187               	clrf	7
  2044  0101  3001               	movlw	1
  2045  0102  0281               	subwf	1,f
  2046  0103  3141               	addfsr 1,1
  2047  0104  3000               	movlw	0
  2048  0105  3B81               	subwfb	1,f
  2049  0106  317F               	addfsr 1,-1
  2050  0107                     l768:	
  2051                           
  2052                           ;main.c: 129:   }
  2053  0107  3001               	movlw	1
  2054  0108  00FA               	movwf	??_MySwTimer
  2055  0109  087A               	movf	??_MySwTimer,w
  2056  010A  07FC               	addwf	MySwTimer@lu8_i,f
  2057  010B                     l770:	
  2058  010B  3002               	movlw	2
  2059  010C  027C               	subwf	MySwTimer@lu8_i,w
  2060  010D  1C03               	skipc
  2061  010E  2910               	goto	u21
  2062  010F  2911               	goto	u20
  2063  0110                     u21:	
  2064  0110  28F3               	goto	l764
  2065  0111                     u20:	
  2066  0111                     l50:	
  2067  0111  0008               	return
  2068  0112                     __end_of_MySwTimer:	
  2069                           
  2070                           	psect	text7
  2071  0024                     __ptext7:	
  2072 ;; *************** function _MainFSM *****************
  2073 ;; Defined at:
  2074 ;;		line 133 in file "main.c"
  2075 ;; Parameters:    Size  Location     Type
  2076 ;;		None
  2077 ;; Auto vars:     Size  Location     Type
  2078 ;;		None
  2079 ;; Return value:  Size  Location     Type
  2080 ;;                  1    wreg      void 
  2081 ;; Registers used:
  2082 ;;		wreg, fsr0l, fsr0h, status,2, status,0
  2083 ;; Tracked objects:
  2084 ;;		On entry : 0/0
  2085 ;;		On exit  : 0/0
  2086 ;;		Unchanged: 0/0
  2087 ;; Data sizes:     COMMON   BANK0   BANK1   BANK2
  2088 ;;      Params:         0       0       0       0
  2089 ;;      Locals:         0       0       0       0
  2090 ;;      Temps:          2       0       0       0
  2091 ;;      Totals:         2       0       0       0
  2092 ;;Total ram usage:        2 bytes
  2093 ;; Hardware stack levels used:    1
  2094 ;; Hardware stack levels required when called:    2
  2095 ;; This function calls:
  2096 ;;		Nothing
  2097 ;; This function is called by:
  2098 ;;		_main
  2099 ;; This function uses a non-reentrant model
  2100 ;;
  2101                           
  2102                           
  2103                           ;psect for function _MainFSM
  2104  0024                     _MainFSM:	
  2105  0024                     l772:	
  2106                           ;incstack = 0
  2107                           ; Regs used in _MainFSM: [wreg-fsr0h+status,2+status,0]
  2108                           
  2109                           
  2110                           ;main.c: 135:   switch (ms_MainFSM)
  2111  0024  286F               	goto	l796
  2112  0025                     l55:	
  2113                           ;main.c: 138:       do { LATAbits.LATA2 = 0; } while(0);
  2114                           
  2115  0025  0140               	movlb	0	; select bank0
  2116  0026  1118               	bcf	24,2	;volatile
  2117  0027                     l57:	
  2118                           ;main.c: 139:       do { LATAbits.LATA4 = 0; } while(0);
  2119                           
  2120  0027  1218               	bcf	24,4	;volatile
  2121  0028                     l59:	
  2122                           ;main.c: 140:       do { LATAbits.LATA5 = 0; } while(0);;
  2123                           
  2124  0028  1298               	bcf	24,5	;volatile
  2125  0029                     l62:	
  2126                           ;main.c: 143:       do { LATAbits.LATA2 = 1; } while(0);
  2127                           
  2128  0029  0140               	movlb	0	; select bank0
  2129  002A  1518               	bsf	24,2	;volatile
  2130  002B                     l774:	
  2131                           
  2132                           ;main.c: 144:       u16_SwTimer[0]=(60u);
  2133  002B  303C               	movlw	60
  2134  002C  00F0               	movwf	_u16_SwTimer
  2135  002D  3000               	movlw	0
  2136  002E  00F1               	movwf	_u16_SwTimer+1
  2137  002F                     l776:	
  2138                           
  2139                           ;main.c: 145:       ms_MainFSM = MainFSM_Led1;
  2140  002F  01F6               	clrf	_ms_MainFSM
  2141  0030  0AF6               	incf	_ms_MainFSM,f
  2142                           
  2143                           ;main.c: 146:       break;
  2144  0031  2888               	goto	l83
  2145  0032                     l778:	
  2146                           
  2147                           ;main.c: 149:       if((0 == u16_SwTimer[0]))
  2148  0032  0870               	movf	_u16_SwTimer,w
  2149  0033  0471               	iorwf	_u16_SwTimer+1,w
  2150  0034  1D03               	btfss	3,2
  2151  0035  2837               	goto	u31
  2152  0036  2838               	goto	u30
  2153  0037                     u31:	
  2154  0037  2888               	goto	l83
  2155  0038                     u30:	
  2156  0038                     l67:	
  2157                           ;main.c: 150:       {;main.c: 151:         do { LATAbits.LATA2 = 0; } while(0);
  2158                           
  2159  0038  0140               	movlb	0	; select bank0
  2160  0039  1118               	bcf	24,2	;volatile
  2161  003A                     l69:	
  2162                           ;main.c: 152:         do { LATAbits.LATA4 = 1; } while(0);
  2163                           
  2164  003A  1618               	bsf	24,4	;volatile
  2165  003B                     l780:	
  2166                           
  2167                           ;main.c: 153:         u16_SwTimer[0]=(60u);
  2168  003B  303C               	movlw	60
  2169  003C  00F0               	movwf	_u16_SwTimer
  2170  003D  3000               	movlw	0
  2171  003E  00F1               	movwf	_u16_SwTimer+1
  2172                           
  2173                           ;main.c: 154:         ms_MainFSM = MainFSM_Led2;
  2174  003F  3002               	movlw	2
  2175  0040  00FA               	movwf	??_MainFSM
  2176  0041  087A               	movf	??_MainFSM,w
  2177  0042  00F6               	movwf	_ms_MainFSM
  2178  0043  2888               	goto	l83
  2179  0044                     l782:	
  2180                           
  2181                           ;main.c: 159:       if((0 == u16_SwTimer[0]))
  2182  0044  0870               	movf	_u16_SwTimer,w
  2183  0045  0471               	iorwf	_u16_SwTimer+1,w
  2184  0046  1D03               	btfss	3,2
  2185  0047  2849               	goto	u41
  2186  0048  284A               	goto	u40
  2187  0049                     u41:	
  2188  0049  2888               	goto	l83
  2189  004A                     u40:	
  2190  004A                     l73:	
  2191                           ;main.c: 160:       {;main.c: 161:         do { LATAbits.LATA4 = 0; } while(0);
  2192                           
  2193  004A  0140               	movlb	0	; select bank0
  2194  004B  1218               	bcf	24,4	;volatile
  2195  004C                     l75:	
  2196                           ;main.c: 162:         do { LATAbits.LATA5 = 1; } while(0);
  2197                           
  2198  004C  1698               	bsf	24,5	;volatile
  2199  004D                     l784:	
  2200                           
  2201                           ;main.c: 163:         u16_SwTimer[0]=(60u);
  2202  004D  303C               	movlw	60
  2203  004E  00F0               	movwf	_u16_SwTimer
  2204  004F  3000               	movlw	0
  2205  0050  00F1               	movwf	_u16_SwTimer+1
  2206                           
  2207                           ;main.c: 164:         ms_MainFSM = MainFSM_Led3;
  2208  0051  3003               	movlw	3
  2209  0052  00FA               	movwf	??_MainFSM
  2210  0053  087A               	movf	??_MainFSM,w
  2211  0054  00F6               	movwf	_ms_MainFSM
  2212  0055  2888               	goto	l83
  2213  0056                     l786:	
  2214                           
  2215                           ;main.c: 169:       if((0 == u16_SwTimer[0]))
  2216  0056  0870               	movf	_u16_SwTimer,w
  2217  0057  0471               	iorwf	_u16_SwTimer+1,w
  2218  0058  1D03               	btfss	3,2
  2219  0059  285B               	goto	u51
  2220  005A  285C               	goto	u50
  2221  005B                     u51:	
  2222  005B  2888               	goto	l83
  2223  005C                     u50:	
  2224  005C                     l79:	
  2225                           ;main.c: 170:       {;main.c: 171:         do { LATAbits.LATA5 = 0; } while(0);;
  2226                           
  2227  005C  0140               	movlb	0	; select bank0
  2228  005D  1298               	bcf	24,5	;volatile
  2229  005E                     l788:	
  2230                           
  2231                           ;main.c: 172:         u16_SwTimer[0]=(2850u);
  2232  005E  3022               	movlw	34
  2233  005F  00F0               	movwf	_u16_SwTimer
  2234  0060  300B               	movlw	11
  2235  0061  00F1               	movwf	_u16_SwTimer+1
  2236                           
  2237                           ;main.c: 173:         ms_MainFSM = MainFSM_Wait;
  2238  0062  3004               	movlw	4
  2239  0063  00FA               	movwf	??_MainFSM
  2240  0064  087A               	movf	??_MainFSM,w
  2241  0065  00F6               	movwf	_ms_MainFSM
  2242  0066  2888               	goto	l83
  2243  0067                     l790:	
  2244                           
  2245                           ;main.c: 178:       if((0 == u16_SwTimer[0]))
  2246  0067  0870               	movf	_u16_SwTimer,w
  2247  0068  0471               	iorwf	_u16_SwTimer+1,w
  2248  0069  1D03               	btfss	3,2
  2249  006A  286C               	goto	u61
  2250  006B  286D               	goto	u60
  2251  006C                     u61:	
  2252  006C  2888               	goto	l83
  2253  006D                     u60:	
  2254  006D                     l792:	
  2255                           
  2256                           ;main.c: 179:       {;main.c: 180:         ms_MainFSM = MainFSM_Init;
  2257  006D  01F6               	clrf	_ms_MainFSM
  2258  006E  2888               	goto	l83
  2259  006F                     l796:	
  2260  006F  0876               	movf	_ms_MainFSM,w
  2261  0070  00FA               	movwf	??_MainFSM
  2262  0071  01FB               	clrf	??_MainFSM+1
  2263                           
  2264                           ; Switch on 2 bytes has been partitioned into a top level switch of size 1, and 1 sub-sw
      +                          itches
  2265                           ; Switch size 1, requested type "simple"
  2266                           ; Number of cases is 1, Range of values is 0 to 0
  2267                           ; switch strategies available:
  2268                           ; Name         Instructions Cycles
  2269                           ; simple_byte            4     3 (average)
  2270                           ; direct_byte            8     6 (fixed)
  2271                           ; jumptable            260     6 (fixed)
  2272                           ;	Chosen strategy is simple_byte
  2273  0072  087B               	movf	??_MainFSM+1,w
  2274  0073  3A00               	xorlw	0	; case 0
  2275  0074  1903               	skipnz
  2276  0075  2877               	goto	l994
  2277  0076  2825               	goto	l55
  2278  0077                     l994:	
  2279                           
  2280                           ; Switch size 1, requested type "simple"
  2281                           ; Number of cases is 5, Range of values is 0 to 4
  2282                           ; switch strategies available:
  2283                           ; Name         Instructions Cycles
  2284                           ; direct_byte           16     6 (fixed)
  2285                           ; simple_byte           16     9 (average)
  2286                           ; jumptable            260     6 (fixed)
  2287                           ;	Chosen strategy is simple_byte
  2288  0077  087A               	movf	??_MainFSM,w
  2289  0078  3A00               	xorlw	0	; case 0
  2290  0079  1903               	skipnz
  2291  007A  2829               	goto	l62
  2292  007B  3A01               	xorlw	1	; case 1
  2293  007C  1903               	skipnz
  2294  007D  2832               	goto	l778
  2295  007E  3A03               	xorlw	3	; case 2
  2296  007F  1903               	skipnz
  2297  0080  2844               	goto	l782
  2298  0081  3A01               	xorlw	1	; case 3
  2299  0082  1903               	skipnz
  2300  0083  2856               	goto	l786
  2301  0084  3A07               	xorlw	7	; case 4
  2302  0085  1903               	skipnz
  2303  0086  2867               	goto	l790
  2304  0087  2825               	goto	l55
  2305  0088                     l83:	
  2306  0088  0008               	return
  2307  0089                     __end_of_MainFSM:	
  2308                           
  2309                           	psect	text8
  2310  0089                     __ptext8:	
  2311 ;; *************** function _HandleSleep *****************
  2312 ;; Defined at:
  2313 ;;		line 187 in file "main.c"
  2314 ;; Parameters:    Size  Location     Type
  2315 ;;		None
  2316 ;; Auto vars:     Size  Location     Type
  2317 ;;		None
  2318 ;; Return value:  Size  Location     Type
  2319 ;;                  1    wreg      void 
  2320 ;; Registers used:
  2321 ;;		wreg, status,2, status,0, pclath, cstack
  2322 ;; Tracked objects:
  2323 ;;		On entry : 0/0
  2324 ;;		On exit  : 0/0
  2325 ;;		Unchanged: 0/0
  2326 ;; Data sizes:     COMMON   BANK0   BANK1   BANK2
  2327 ;;      Params:         0       0       0       0
  2328 ;;      Locals:         0       0       0       0
  2329 ;;      Temps:          0       0       0       0
  2330 ;;      Totals:         0       0       0       0
  2331 ;;Total ram usage:        0 bytes
  2332 ;; Hardware stack levels used:    1
  2333 ;; Hardware stack levels required when called:    4
  2334 ;; This function calls:
  2335 ;;		_PrepareRun
  2336 ;;		_PrepareSleep
  2337 ;; This function is called by:
  2338 ;;		_main
  2339 ;; This function uses a non-reentrant model
  2340 ;;
  2341                           
  2342                           
  2343                           ;psect for function _HandleSleep
  2344  0089                     _HandleSleep:	
  2345  0089                     l928:	
  2346                           ;incstack = 0
  2347                           ; Regs used in _HandleSleep: [wreg+status,2+status,0+pclath+cstack]
  2348                           
  2349                           
  2350                           ;main.c: 189:   if ((0 == u16_SwTimer[1]) &&
  2351  0089  0872               	movf	_u16_SwTimer+2,w
  2352  008A  0473               	iorwf	_u16_SwTimer+3,w
  2353  008B  1D03               	btfss	3,2
  2354  008C  288E               	goto	u161
  2355  008D  288F               	goto	u160
  2356  008E                     u161:	
  2357  008E  28D1               	goto	l92
  2358  008F                     u160:	
  2359  008F                     l930:	
  2360  008F  3004               	movlw	4
  2361  0090  0676               	xorwf	_ms_MainFSM,w
  2362  0091  1D03               	btfss	3,2
  2363  0092  2894               	goto	u171
  2364  0093  2895               	goto	u170
  2365  0094                     u171:	
  2366  0094  28D1               	goto	l92
  2367  0095                     u170:	
  2368  0095                     l932:	
  2369                           
  2370                           ;main.c: 191:   {;main.c: 192:     u16_SwTimer[1]=(60000u);
  2371  0095  3060               	movlw	96
  2372  0096  00F2               	movwf	_u16_SwTimer+2
  2373  0097  30EA               	movlw	234
  2374  0098  00F3               	movwf	_u16_SwTimer+3
  2375                           
  2376                           ;main.c: 193:     u16_MinutesElapsed++;
  2377  0099  3001               	movlw	1
  2378  009A  07F4               	addwf	_u16_MinutesElapsed,f
  2379  009B  3000               	movlw	0
  2380  009C  3DF5               	addwfc	_u16_MinutesElapsed+1,f
  2381  009D                     l934:	
  2382                           
  2383                           ;main.c: 195:     if (((0u) == PORTAbits.RA0))
  2384  009D  0140               	movlb	0	; select bank0
  2385  009E  180C               	btfsc	12,0	;volatile
  2386  009F  28A1               	goto	u181
  2387  00A0  28A2               	goto	u180
  2388  00A1                     u181:	
  2389  00A1  28AE               	goto	l942
  2390  00A2                     u180:	
  2391  00A2                     l936:	
  2392                           
  2393                           ;main.c: 196:     {;main.c: 197:       u16_Timeout = (75u);
  2394  00A2  304B               	movlw	75
  2395  00A3  00A0               	movwf	_u16_Timeout
  2396  00A4  3000               	movlw	0
  2397  00A5  00A1               	movwf	_u16_Timeout+1
  2398  00A6                     l938:	
  2399                           
  2400                           ;main.c: 198:       if ((0u) == u1_InWater)
  2401  00A6  0877               	movf	_u1_InWater,w
  2402  00A7  1D03               	btfss	3,2
  2403  00A8  28AA               	goto	u191
  2404  00A9  28AB               	goto	u190
  2405  00AA                     u191:	
  2406  00AA  28B8               	goto	l948
  2407  00AB                     u190:	
  2408  00AB                     l940:	
  2409                           
  2410                           ;main.c: 199:       {;main.c: 200:         u16_MinutesElapsed = 0;
  2411  00AB  01F4               	clrf	_u16_MinutesElapsed
  2412  00AC  01F5               	clrf	_u16_MinutesElapsed+1
  2413  00AD  28B8               	goto	l948
  2414  00AE                     l942:	
  2415                           
  2416                           ;main.c: 204:     {;main.c: 205:       u16_Timeout = (5u);
  2417  00AE  3005               	movlw	5
  2418  00AF  00A0               	movwf	_u16_Timeout
  2419  00B0  3000               	movlw	0
  2420  00B1  00A1               	movwf	_u16_Timeout+1
  2421  00B2                     l944:	
  2422                           
  2423                           ;main.c: 206:       if ((0u) != u1_InWater)
  2424  00B2  0877               	movf	_u1_InWater,w
  2425  00B3  1903               	btfsc	3,2
  2426  00B4  28B6               	goto	u201
  2427  00B5  28B7               	goto	u200
  2428  00B6                     u201:	
  2429  00B6  28B8               	goto	l948
  2430  00B7                     u200:	
  2431  00B7  28AB               	goto	l940
  2432  00B8                     l948:	
  2433                           
  2434                           ;main.c: 211:     u1_InWater = ((0u) == PORTAbits.RA0);
  2435  00B8  1003               	clrc
  2436  00B9  1C0C               	btfss	12,0	;volatile
  2437  00BA  1403               	setc
  2438  00BB  3000               	movlw	0
  2439  00BC  1803               	btfsc	3,0
  2440  00BD  3001               	movlw	1
  2441  00BE  00F7               	movwf	_u1_InWater
  2442  00BF                     l950:	
  2443                           
  2444                           ;main.c: 213:     if((u16_Timeout == u16_MinutesElapsed))
  2445  00BF  0875               	movf	_u16_MinutesElapsed+1,w
  2446  00C0  0621               	xorwf	_u16_Timeout+1,w
  2447  00C1  1D03               	skipz
  2448  00C2  28C5               	goto	u215
  2449  00C3  0874               	movf	_u16_MinutesElapsed,w
  2450  00C4  0620               	xorwf	_u16_Timeout,w
  2451  00C5                     u215:	
  2452  00C5  1D03               	skipz
  2453  00C6  28C8               	goto	u211
  2454  00C7  28C9               	goto	u210
  2455  00C8                     u211:	
  2456  00C8  28D1               	goto	l92
  2457  00C9                     u210:	
  2458  00C9                     l952:	
  2459                           
  2460                           ;main.c: 214:     {;main.c: 215:       PrepareSleep();
  2461  00C9  3181  2152  3180   	fcall	_PrepareSleep
  2462  00CC  0063               	sleep	;# 
  2463  00CD                     l954:	
  2464                           
  2465                           ;main.c: 217:       __nop();
  2466  00CD  0000               	nop
  2467                           
  2468                           ;main.c: 218:       PrepareRun();
  2469  00CE  3181  212E  3180   	fcall	_PrepareRun
  2470  00D1                     l92:	
  2471  00D1  0008               	return
  2472  00D2                     __end_of_HandleSleep:	
  2473                           
  2474                           	psect	text9
  2475  0152                     __ptext9:	
  2476 ;; *************** function _PrepareSleep *****************
  2477 ;; Defined at:
  2478 ;;		line 95 in file "main.c"
  2479 ;; Parameters:    Size  Location     Type
  2480 ;;		None
  2481 ;; Auto vars:     Size  Location     Type
  2482 ;;		None
  2483 ;; Return value:  Size  Location     Type
  2484 ;;                  1    wreg      void 
  2485 ;; Registers used:
  2486 ;;		status,2, status,0, pclath, cstack
  2487 ;; Tracked objects:
  2488 ;;		On entry : 0/0
  2489 ;;		On exit  : 0/0
  2490 ;;		Unchanged: 0/0
  2491 ;; Data sizes:     COMMON   BANK0   BANK1   BANK2
  2492 ;;      Params:         0       0       0       0
  2493 ;;      Locals:         0       0       0       0
  2494 ;;      Temps:          0       0       0       0
  2495 ;;      Totals:         0       0       0       0
  2496 ;;Total ram usage:        0 bytes
  2497 ;; Hardware stack levels used:    1
  2498 ;; Hardware stack levels required when called:    3
  2499 ;; This function calls:
  2500 ;;		_TMR0_StopTimer
  2501 ;; This function is called by:
  2502 ;;		_HandleSleep
  2503 ;; This function uses a non-reentrant model
  2504 ;;
  2505                           
  2506                           
  2507                           ;psect for function _PrepareSleep
  2508  0152                     _PrepareSleep:	
  2509  0152                     l906:	
  2510                           ;incstack = 0
  2511                           ; Regs used in _PrepareSleep: [status,2+status,0+pclath+cstack]
  2512                           
  2513                           
  2514                           ;main.c: 97:   TMR0_StopTimer();
  2515  0152  3181  216D  3181   	fcall	_TMR0_StopTimer
  2516  0155                     l908:	
  2517                           
  2518                           ;main.c: 98:   GIE = 0;
  2519  0155  138B               	bcf	11,7	;volatile
  2520  0156                     l910:	
  2521                           
  2522                           ;main.c: 99:   IOCAF = 0;
  2523  0156  017E               	movlb	62	; select bank62
  2524  0157  01BF               	clrf	63	;volatile
  2525  0158                     l912:	
  2526                           
  2527                           ;main.c: 100:   IOCAN0 = 1;
  2528  0158  143E               	bsf	62,0	;volatile
  2529  0159                     l914:	
  2530                           
  2531                           ;main.c: 101:   IOCIE = 1;
  2532  0159  014E               	movlb	14	; select bank14
  2533  015A  1616               	bsf	22,4	;volatile
  2534  015B                     l41:	
  2535  015B  0008               	return
  2536  015C                     __end_of_PrepareSleep:	
  2537                           
  2538                           	psect	text10
  2539  016D                     __ptext10:	
  2540 ;; *************** function _TMR0_StopTimer *****************
  2541 ;; Defined at:
  2542 ;;		line 53 in file "tmr0.c"
  2543 ;; Parameters:    Size  Location     Type
  2544 ;;		None
  2545 ;; Auto vars:     Size  Location     Type
  2546 ;;		None
  2547 ;; Return value:  Size  Location     Type
  2548 ;;                  1    wreg      void 
  2549 ;; Registers used:
  2550 ;;		None
  2551 ;; Tracked objects:
  2552 ;;		On entry : 0/0
  2553 ;;		On exit  : 0/0
  2554 ;;		Unchanged: 0/0
  2555 ;; Data sizes:     COMMON   BANK0   BANK1   BANK2
  2556 ;;      Params:         0       0       0       0
  2557 ;;      Locals:         0       0       0       0
  2558 ;;      Temps:          0       0       0       0
  2559 ;;      Totals:         0       0       0       0
  2560 ;;Total ram usage:        0 bytes
  2561 ;; Hardware stack levels used:    1
  2562 ;; Hardware stack levels required when called:    2
  2563 ;; This function calls:
  2564 ;;		Nothing
  2565 ;; This function is called by:
  2566 ;;		_PrepareSleep
  2567 ;; This function uses a non-reentrant model
  2568 ;;
  2569                           
  2570                           
  2571                           ;psect for function _TMR0_StopTimer
  2572  016D                     _TMR0_StopTimer:	
  2573  016D                     l902:	
  2574                           ;incstack = 0
  2575                           ; Regs used in _TMR0_StopTimer: []
  2576                           
  2577                           
  2578                           ;tmr0.c: 56:     T0CON0bits.T0EN = 0;
  2579  016D  014B               	movlb	11	; select bank11
  2580  016E  139E               	bcf	30,7	;volatile
  2581  016F                     l129:	
  2582  016F  0008               	return
  2583  0170                     __end_of_TMR0_StopTimer:	
  2584                           
  2585                           	psect	text11
  2586  012E                     __ptext11:	
  2587 ;; *************** function _PrepareRun *****************
  2588 ;; Defined at:
  2589 ;;		line 104 in file "main.c"
  2590 ;; Parameters:    Size  Location     Type
  2591 ;;		None
  2592 ;; Auto vars:     Size  Location     Type
  2593 ;;		None
  2594 ;; Return value:  Size  Location     Type
  2595 ;;                  1    wreg      void 
  2596 ;; Registers used:
  2597 ;;		status,2, status,0, pclath, cstack
  2598 ;; Tracked objects:
  2599 ;;		On entry : 0/0
  2600 ;;		On exit  : 0/0
  2601 ;;		Unchanged: 0/0
  2602 ;; Data sizes:     COMMON   BANK0   BANK1   BANK2
  2603 ;;      Params:         0       0       0       0
  2604 ;;      Locals:         0       0       0       0
  2605 ;;      Temps:          0       0       0       0
  2606 ;;      Totals:         0       0       0       0
  2607 ;;Total ram usage:        0 bytes
  2608 ;; Hardware stack levels used:    1
  2609 ;; Hardware stack levels required when called:    3
  2610 ;; This function calls:
  2611 ;;		_TMR0_StartTimer
  2612 ;; This function is called by:
  2613 ;;		_HandleSleep
  2614 ;; This function uses a non-reentrant model
  2615 ;;
  2616                           
  2617                           
  2618                           ;psect for function _PrepareRun
  2619  012E                     _PrepareRun:	
  2620  012E                     l916:	
  2621                           ;incstack = 0
  2622                           ; Regs used in _PrepareRun: [status,2+status,0+pclath+cstack]
  2623                           
  2624                           
  2625                           ;main.c: 106:   IOCAN0 = 0;
  2626  012E  017E               	movlb	62	; select bank62
  2627  012F  103E               	bcf	62,0	;volatile
  2628                           
  2629                           ;main.c: 107:   IOCIE = 0;
  2630  0130  014E               	movlb	14	; select bank14
  2631  0131  1216               	bcf	22,4	;volatile
  2632  0132                     l918:	
  2633                           
  2634                           ;main.c: 108:   IOCAF = 0;
  2635  0132  017E               	movlb	62	; select bank62
  2636  0133  01BF               	clrf	63	;volatile
  2637  0134                     l920:	
  2638                           
  2639                           ;main.c: 109:   GIE = 1;
  2640  0134  178B               	bsf	11,7	;volatile
  2641  0135                     l922:	
  2642                           
  2643                           ;main.c: 111:   TMR0_StartTimer();
  2644  0135  3181  2170  3181   	fcall	_TMR0_StartTimer
  2645  0138                     l924:	
  2646                           
  2647                           ;main.c: 113:   u16_MinutesElapsed = 0;
  2648  0138  01F4               	clrf	_u16_MinutesElapsed
  2649  0139  01F5               	clrf	_u16_MinutesElapsed+1
  2650  013A                     l926:	
  2651                           
  2652                           ;main.c: 114:   ms_MainFSM = MainFSM_Init;
  2653  013A  01F6               	clrf	_ms_MainFSM
  2654  013B                     l44:	
  2655  013B  0008               	return
  2656  013C                     __end_of_PrepareRun:	
  2657                           
  2658                           	psect	text12
  2659  0170                     __ptext12:	
  2660 ;; *************** function _TMR0_StartTimer *****************
  2661 ;; Defined at:
  2662 ;;		line 47 in file "tmr0.c"
  2663 ;; Parameters:    Size  Location     Type
  2664 ;;		None
  2665 ;; Auto vars:     Size  Location     Type
  2666 ;;		None
  2667 ;; Return value:  Size  Location     Type
  2668 ;;                  1    wreg      void 
  2669 ;; Registers used:
  2670 ;;		None
  2671 ;; Tracked objects:
  2672 ;;		On entry : 0/0
  2673 ;;		On exit  : 0/0
  2674 ;;		Unchanged: 0/0
  2675 ;; Data sizes:     COMMON   BANK0   BANK1   BANK2
  2676 ;;      Params:         0       0       0       0
  2677 ;;      Locals:         0       0       0       0
  2678 ;;      Temps:          0       0       0       0
  2679 ;;      Totals:         0       0       0       0
  2680 ;;Total ram usage:        0 bytes
  2681 ;; Hardware stack levels used:    1
  2682 ;; Hardware stack levels required when called:    2
  2683 ;; This function calls:
  2684 ;;		Nothing
  2685 ;; This function is called by:
  2686 ;;		_PrepareRun
  2687 ;; This function uses a non-reentrant model
  2688 ;;
  2689                           
  2690                           
  2691                           ;psect for function _TMR0_StartTimer
  2692  0170                     _TMR0_StartTimer:	
  2693  0170                     l904:	
  2694                           ;incstack = 0
  2695                           ; Regs used in _TMR0_StartTimer: []
  2696                           
  2697                           
  2698                           ;tmr0.c: 50:     T0CON0bits.T0EN = 1;
  2699  0170  014B               	movlb	11	; select bank11
  2700  0171  179E               	bsf	30,7	;volatile
  2701  0172                     l126:	
  2702  0172  0008               	return
  2703  0173                     __end_of_TMR0_StartTimer:	
  2704                           
  2705                           	psect	intentry
  2706  0004                     __pintentry:	
  2707 ;; *************** function _INTERRUPT_InterruptManager *****************
  2708 ;; Defined at:
  2709 ;;		line 20 in file "interrupt_manager.c"
  2710 ;; Parameters:    Size  Location     Type
  2711 ;;		None
  2712 ;; Auto vars:     Size  Location     Type
  2713 ;;		None
  2714 ;; Return value:  Size  Location     Type
  2715 ;;                  1    wreg      void 
  2716 ;; Registers used:
  2717 ;;		wreg, status,2, status,0, pclath, cstack
  2718 ;; Tracked objects:
  2719 ;;		On entry : 0/0
  2720 ;;		On exit  : 0/0
  2721 ;;		Unchanged: 0/0
  2722 ;; Data sizes:     COMMON   BANK0   BANK1   BANK2
  2723 ;;      Params:         0       0       0       0
  2724 ;;      Locals:         0       0       0       0
  2725 ;;      Temps:          0       0       0       0
  2726 ;;      Totals:         0       0       0       0
  2727 ;;Total ram usage:        0 bytes
  2728 ;; Hardware stack levels used:    1
  2729 ;; Hardware stack levels required when called:    1
  2730 ;; This function calls:
  2731 ;;		_TMR0_ISR
  2732 ;; This function is called by:
  2733 ;;		Interrupt level 1
  2734 ;; This function uses a non-reentrant model
  2735 ;;
  2736                           
  2737  0004                     _INTERRUPT_InterruptManager:	
  2738                           
  2739                           ;incstack = 0
  2740  0004  147E               	bsf	int$flags,0	;set compiler interrupt flag (level 1)
  2741                           
  2742                           ; Regs used in _INTERRUPT_InterruptManager: [wreg+status,2+status,0+pclath+cstack]
  2743  0005  3180               	pagesel	$
  2744  0006                     i1l876:	
  2745                           
  2746                           ;interrupt_manager.c: 23:     if(PIE0bits.TMR0IE == 1 && PIR0bits.TMR0IF == 1)
  2747  0006  014E               	movlb	14	; select bank14
  2748  0007  1E96               	btfss	22,5	;volatile
  2749  0008  280A               	goto	u14_21
  2750  0009  280B               	goto	u14_20
  2751  000A                     u14_21:	
  2752  000A  2812               	goto	i1l142
  2753  000B                     u14_20:	
  2754  000B                     i1l878:	
  2755  000B  1E8C               	btfss	12,5	;volatile
  2756  000C  280E               	goto	u15_21
  2757  000D  280F               	goto	u15_20
  2758  000E                     u15_21:	
  2759  000E  2812               	goto	i1l142
  2760  000F                     u15_20:	
  2761  000F                     i1l880:	
  2762                           
  2763                           ;interrupt_manager.c: 24:     {;interrupt_manager.c: 25:         TMR0_ISR();
  2764  000F  3181  213C  3180   	fcall	_TMR0_ISR
  2765  0012                     i1l142:	
  2766                           ;interrupt_manager.c: 26:     }
  2767                           
  2768  0012  107E               	bcf	int$flags,0	;clear compiler interrupt flag (level 1)
  2769  0013  0009               	retfie
  2770  0014                     __end_of_INTERRUPT_InterruptManager:	
  2771                           
  2772                           	psect	text14
  2773  013C                     __ptext14:	
  2774 ;; *************** function _TMR0_ISR *****************
  2775 ;; Defined at:
  2776 ;;		line 38 in file "tmr0.c"
  2777 ;; Parameters:    Size  Location     Type
  2778 ;;		None
  2779 ;; Auto vars:     Size  Location     Type
  2780 ;;		None
  2781 ;; Return value:  Size  Location     Type
  2782 ;;                  1    wreg      void 
  2783 ;; Registers used:
  2784 ;;		wreg
  2785 ;; Tracked objects:
  2786 ;;		On entry : 0/0
  2787 ;;		On exit  : 0/0
  2788 ;;		Unchanged: 0/0
  2789 ;; Data sizes:     COMMON   BANK0   BANK1   BANK2
  2790 ;;      Params:         0       0       0       0
  2791 ;;      Locals:         0       0       0       0
  2792 ;;      Temps:          1       0       0       0
  2793 ;;      Totals:         1       0       0       0
  2794 ;;Total ram usage:        1 bytes
  2795 ;; Hardware stack levels used:    1
  2796 ;; This function calls:
  2797 ;;		Nothing
  2798 ;; This function is called by:
  2799 ;;		_INTERRUPT_InterruptManager
  2800 ;; This function uses a non-reentrant model
  2801 ;;
  2802                           
  2803                           
  2804                           ;psect for function _TMR0_ISR
  2805  013C                     _TMR0_ISR:	
  2806  013C                     i1l854:	
  2807                           ;incstack = 0
  2808                           ; Regs used in _TMR0_ISR: [wreg]
  2809                           
  2810                           
  2811                           ;tmr0.c: 40:     PIR0bits.TMR0IF = 0;
  2812  013C  014E               	movlb	14	; select bank14
  2813  013D  128C               	bcf	12,5	;volatile
  2814  013E                     i1l856:	
  2815                           
  2816                           ;tmr0.c: 41:     TMR0H = (0xFC);
  2817  013E  30FC               	movlw	252
  2818  013F  014B               	movlb	11	; select bank11
  2819  0140  009D               	movwf	29	;volatile
  2820                           
  2821                           ;tmr0.c: 42:     TMR0L = (0x7B);
  2822  0141  307B               	movlw	123
  2823  0142  009C               	movwf	28	;volatile
  2824                           
  2825                           ;tmr0.c: 44:     u1_TimerIsrOcured = (1u);
  2826  0143  3001               	movlw	1
  2827  0144  00F9               	movwf	??_TMR0_ISR
  2828  0145  0879               	movf	??_TMR0_ISR,w
  2829  0146  00F8               	movwf	_u1_TimerIsrOcured	;volatile
  2830  0147                     i1l123:	
  2831  0147  0008               	return
  2832  0148                     __end_of_TMR0_ISR:	
  2833  007E                     btemp	set	126	;btemp
  2834  007E                     int$flags	set	126
  2835  007E                     wtemp0	set	126


Data Sizes:
    Strings     0
    Constant    0
    Data        0
    BSS         11
    Persistent  32
    Stack       0

Auto Spaces:
    Space          Size  Autos    Used
    COMMON           14      4      13
    BANK0            80      0       2
    BANK1            80      0       0
    BANK2            80      0       0

Pointer List with Targets:

    None.

Critical Paths under _main in COMMON

    _main->_MySwTimer

Critical Paths under _INTERRUPT_InterruptManager in COMMON

    _INTERRUPT_InterruptManager->_TMR0_ISR

Critical Paths under _main in BANK0

    None.

Critical Paths under _INTERRUPT_InterruptManager in BANK0

    None.

Critical Paths under _main in BANK1

    None.

Critical Paths under _INTERRUPT_InterruptManager in BANK1

    None.

Critical Paths under _main in BANK2

    None.

Critical Paths under _INTERRUPT_InterruptManager in BANK2

    None.

Call Graph Tables:

 ---------------------------------------------------------------------------------
 (Depth) Function   	        Calls       Base Space   Used Autos Params    Refs
 ---------------------------------------------------------------------------------
 (0) _main                                                 0     0      0      60
                        _HandleSleep
                            _MainFSM
                          _MySwTimer
             _PIN_MANAGER_Initialize
                  _SYSTEM_Initialize
                    _TMR0_Initialize
 ---------------------------------------------------------------------------------
 (1) _TMR0_Initialize                                      0     0      0       0
 ---------------------------------------------------------------------------------
 (1) _SYSTEM_Initialize                                    0     0      0       0
              _OSCILLATOR_Initialize
                     _PMD_Initialize
 ---------------------------------------------------------------------------------
 (2) _PMD_Initialize                                       0     0      0       0
 ---------------------------------------------------------------------------------
 (2) _OSCILLATOR_Initialize                                0     0      0       0
 ---------------------------------------------------------------------------------
 (1) _PIN_MANAGER_Initialize                               0     0      0       0
 ---------------------------------------------------------------------------------
 (1) _MySwTimer                                            3     3      0      60
                                              1 COMMON     3     3      0
 ---------------------------------------------------------------------------------
 (1) _MainFSM                                              2     2      0       0
                                              1 COMMON     2     2      0
 ---------------------------------------------------------------------------------
 (1) _HandleSleep                                          0     0      0       0
                         _PrepareRun
                       _PrepareSleep
 ---------------------------------------------------------------------------------
 (2) _PrepareSleep                                         0     0      0       0
                     _TMR0_StopTimer
 ---------------------------------------------------------------------------------
 (3) _TMR0_StopTimer                                       0     0      0       0
 ---------------------------------------------------------------------------------
 (2) _PrepareRun                                           0     0      0       0
                    _TMR0_StartTimer
 ---------------------------------------------------------------------------------
 (3) _TMR0_StartTimer                                      0     0      0       0
 ---------------------------------------------------------------------------------
 Estimated maximum stack depth 3
 ---------------------------------------------------------------------------------
 (Depth) Function   	        Calls       Base Space   Used Autos Params    Refs
 ---------------------------------------------------------------------------------
 (4) _INTERRUPT_InterruptManager                           0     0      0       0
                           _TMR0_ISR
 ---------------------------------------------------------------------------------
 (5) _TMR0_ISR                                             1     1      0       0
                                              0 COMMON     1     1      0
 ---------------------------------------------------------------------------------
 Estimated maximum stack depth 5
 ---------------------------------------------------------------------------------

 Call Graph Graphs:

 _main (ROOT)
   _HandleSleep
     _PrepareRun
       _TMR0_StartTimer
     _PrepareSleep
       _TMR0_StopTimer
   _MainFSM
   _MySwTimer
   _PIN_MANAGER_Initialize
   _SYSTEM_Initialize
     _OSCILLATOR_Initialize
     _PMD_Initialize
   _TMR0_Initialize

 _INTERRUPT_InterruptManager (ROOT)
   _TMR0_ISR

 Address spaces:
Name               Size   Autos  Total    Cost      Usage
BIGRAM              F0      0       0       0        0.0%
NULL                 0      0       0       0        0.0%
CODE                 0      0       0       0        0.0%
BITCOMMON            E      0       0       1        0.0%
BITSFR0              0      0       0       1        0.0%
SFR0                 0      0       0       1        0.0%
COMMON               E      4       D       2       92.9%
BITSFR1              0      0       0       2        0.0%
SFR1                 0      0       0       2        0.0%
BITSFR2              0      0       0       3        0.0%
SFR2                 0      0       0       3        0.0%
STACK                0      0       0       3        0.0%
BITBANK0            50      0       0       4        0.0%
BITSFR3              0      0       0       4        0.0%
SFR3                 0      0       0       4        0.0%
BANK0               50      0       2       5        2.5%
BITSFR4              0      0       0       5        0.0%
SFR4                 0      0       0       5        0.0%
BITBANK1            50      0       0       6        0.0%
BITSFR5              0      0       0       6        0.0%
SFR5                 0      0       0       6        0.0%
BANK1               50      0       0       7        0.0%
BITSFR6              0      0       0       7        0.0%
SFR6                 0      0       0       7        0.0%
BITBANK2            50      0       0       8        0.0%
BITSFR7              0      0       0       8        0.0%
SFR7                 0      0       0       8        0.0%
BANK2               50      0       0       9        0.0%
BITSFR8              0      0       0       9        0.0%
SFR8                 0      0       0       9        0.0%
BITSFR9              0      0       0      10        0.0%
SFR9                 0      0       0      10        0.0%
ABS                  0      0       F      10        0.0%
BITSFR10             0      0       0      11        0.0%
SFR10                0      0       0      11        0.0%
DATA                 0      0       F      11        0.0%
BITSFR11             0      0       0      12        0.0%
SFR11                0      0       0      12        0.0%
BITSFR12             0      0       0      13        0.0%
SFR12                0      0       0      13        0.0%
BITSFR13             0      0       0      14        0.0%
SFR13                0      0       0      14        0.0%
BITSFR14             0      0       0      15        0.0%
SFR14                0      0       0      15        0.0%
BITSFR15             0      0       0      16        0.0%
SFR15                0      0       0      16        0.0%
BITSFR16             0      0       0      17        0.0%
SFR16                0      0       0      17        0.0%
BITSFR17             0      0       0      18        0.0%
SFR17                0      0       0      18        0.0%
BITSFR18             0      0       0      19        0.0%
SFR18                0      0       0      19        0.0%
BITSFR19             0      0       0      20        0.0%
SFR19                0      0       0      20        0.0%
BITSFR20             0      0       0      21        0.0%
SFR20                0      0       0      21        0.0%
BITSFR21             0      0       0      22        0.0%
SFR21                0      0       0      22        0.0%
BITSFR22             0      0       0      23        0.0%
SFR22                0      0       0      23        0.0%
BITSFR23             0      0       0      24        0.0%
SFR23                0      0       0      24        0.0%
BITSFR24             0      0       0      25        0.0%
SFR24                0      0       0      25        0.0%
BITSFR25             0      0       0      26        0.0%
SFR25                0      0       0      26        0.0%
BITSFR26             0      0       0      27        0.0%
SFR26                0      0       0      27        0.0%
BITSFR27             0      0       0      28        0.0%
SFR27                0      0       0      28        0.0%
BITSFR28             0      0       0      29        0.0%
SFR28                0      0       0      29        0.0%
BITSFR29             0      0       0      30        0.0%
SFR29                0      0       0      30        0.0%
BITSFR30             0      0       0      31        0.0%
SFR30                0      0       0      31        0.0%
BITSFR31             0      0       0      32        0.0%
SFR31                0      0       0      32        0.0%
BITSFR32             0      0       0      33        0.0%
SFR32                0      0       0      33        0.0%
BITSFR33             0      0       0      34        0.0%
SFR33                0      0       0      34        0.0%
BITSFR34             0      0       0      35        0.0%
SFR34                0      0       0      35        0.0%
BITSFR35             0      0       0      36        0.0%
SFR35                0      0       0      36        0.0%
BITSFR36             0      0       0      37        0.0%
SFR36                0      0       0      37        0.0%
BITSFR37             0      0       0      38        0.0%
SFR37                0      0       0      38        0.0%
BITSFR38             0      0       0      39        0.0%
SFR38                0      0       0      39        0.0%
BITSFR39             0      0       0      40        0.0%
SFR39                0      0       0      40        0.0%
BITSFR40             0      0       0      41        0.0%
SFR40                0      0       0      41        0.0%
BITSFR41             0      0       0      42        0.0%
SFR41                0      0       0      42        0.0%
BITSFR42             0      0       0      43        0.0%
SFR42                0      0       0      43        0.0%
BITSFR43             0      0       0      44        0.0%
SFR43                0      0       0      44        0.0%
BITSFR44             0      0       0      45        0.0%
SFR44                0      0       0      45        0.0%
BITSFR45             0      0       0      46        0.0%
SFR45                0      0       0      46        0.0%
BITSFR46             0      0       0      47        0.0%
SFR46                0      0       0      47        0.0%
BITSFR47             0      0       0      48        0.0%
SFR47                0      0       0      48        0.0%
BITSFR48             0      0       0      49        0.0%
SFR48                0      0       0      49        0.0%
BITSFR49             0      0       0      50        0.0%
SFR49                0      0       0      50        0.0%
BITSFR50             0      0       0      51        0.0%
SFR50                0      0       0      51        0.0%
BITSFR51             0      0       0      52        0.0%
SFR51                0      0       0      52        0.0%
BITSFR52             0      0       0      53        0.0%
SFR52                0      0       0      53        0.0%
BITSFR53             0      0       0      54        0.0%
SFR53                0      0       0      54        0.0%
BITSFR54             0      0       0      55        0.0%
SFR54                0      0       0      55        0.0%
BITSFR55             0      0       0      56        0.0%
SFR55                0      0       0      56        0.0%
BITSFR56             0      0       0      57        0.0%
SFR56                0      0       0      57        0.0%
BITSFR57             0      0       0      58        0.0%
SFR57                0      0       0      58        0.0%
BITSFR58             0      0       0      59        0.0%
SFR58                0      0       0      59        0.0%
BITSFR59             0      0       0      60        0.0%
SFR59                0      0       0      60        0.0%
BITSFR60             0      0       0      61        0.0%
SFR60                0      0       0      61        0.0%
BITSFR61             0      0       0      62        0.0%
SFR61                0      0       0      62        0.0%
BITSFR62             0      0       0      63        0.0%
SFR62                0      0       0      63        0.0%
BITSFR63             0      0       0      64        0.0%
SFR63                0      0       0      64        0.0%


Microchip Technology PIC Macro Assembler V2.10 build 88905656 
Symbol Table                                                                                   Wed Feb 19 21:14:43 2020

                        __CFG_CP$OFF 0000                                   l41 015B  
                                 l50 0111                                   l44 013B  
                                 l62 0029                                   l55 0025  
                                 l73 004A                                   l57 0027  
                                 l75 004C                                   l67 0038  
                                 l83 0088                                   l59 0028  
                                 l92 00D1                                   l69 003A  
                                 l79 005C                                   u10 00FD  
                                 u11 00FC                                   u20 0111  
                                 u21 0110                                   u30 0038  
                                 u31 0037                                   u40 004A  
                                 u41 0049                                   u50 005C  
                                 u51 005B                                   u60 006D  
                                 u61 006C                          __CFG_LVP$ON 0000  
                                l120 011F                                  l126 0172  
                                l129 016F                                  l159 012D  
                                l191 0151                                  l194 0164  
                                l188 016C                                  l902 016D  
                                l910 0156                                  l750 014B  
                                l830 015C                                  l904 0170  
                                l920 0134                                  l912 0158  
                                l840 0124                                  l752 014C  
                                l832 015E                                  l922 0135  
                                l914 0159                                  l906 0152  
                                l930 008F                                  l770 010B  
                                l842 0128                                  l754 014F  
                                l746 0165                                  l834 0161  
                                l850 0119                                  l924 0138  
                                l916 012E                                  l908 0155  
                                l940 00AB                                  l932 0095  
                                l780 003B                                  l772 0024  
                                l764 00F3                                  l844 0129  
                                l836 0120                                  l756 0150  
                                l748 0148                                  l852 011B  
                                l926 013A                                  l918 0132  
                                l950 00BF                                  l942 00AE  
                                l934 009D                                  l790 0067  
                                l782 0044                                  l774 002B  
                                l766 00FD                                  l758 00F2  
                                l846 012B                                  l838 0122  
                                l952 00C9                                  l944 00B2  
                                l936 00A2                                  l928 0089  
                                l792 006D                                  l784 004D  
                                l776 002F                                  l768 0107  
                                l848 0112                                  l960 00DC  
                                l954 00CD                                  l938 00A6  
                                l786 0056                                  l778 0032  
                                l970 00EA                                  l962 00DD  
                                l948 00B8                                  l788 005E  
                                l796 006F                                  l972 00ED  
                                l964 00E1                                  l956 00D2  
                                l966 00E6                                  l958 00DB  
                                l968 00E7                                  l994 0077  
                                _GIE 005F                                  u200 00B7  
                                u201 00B6                                  u210 00C9  
                                u211 00C8                                  u220 00E6  
                                u221 00E5                                  u215 00C5  
                                u160 008F                                  u161 008E  
                                u170 0095                                  u171 0094  
                                u180 00A2                                  u181 00A1  
                                u190 00AB                                  u191 00AA  
            __size_of_PMD_Initialize 0008                         __CFG_BORV$LO 0000  
                __end_of_HandleSleep 00D2                        __CFG_BBEN$OFF 0000  
                       __CFG_ZCD$OFF 0000                                 _LATA 0018  
                               _PMD0 0796                                 _PMD1 0797  
                               _PMD2 0798                                 _PMD3 0799  
                               _PMD4 079A                                 _PMD5 079B  
                               _WPUA 1F39                                 _main 00D2  
                    _TMR0_StartTimer 0170                                 fsr1h 0007  
                               indf1 0001                                 fsr1l 0006  
                               btemp 007E                                 start 0014  
                      __CFG_MCLRE$ON 0000                      __end_of_MainFSM 0089  
            __end_of_TMR0_Initialize 0120       __size_of_OSCILLATOR_Initialize 000A  
      __end_of_OSCILLATOR_Initialize 0152                       MySwTimer@lu8_i 007C  
                              ?_main 0079                        __CFG_WDTE$OFF 0000  
                              _IOCAF 1F3F                                _IOCIE 38B4  
                              i1l123 0147                                i1l142 0012  
                              i1l854 013C                                i1l856 013E  
                              i1l880 000F                                i1l876 0006  
                              i1l878 000B                                _OSCEN 0891  
                              u14_20 000B                                u14_21 000A  
                              u15_20 000F                                u15_21 000E  
                              _TMR0H 059D                                _TMR0L 059C  
                              _TRISA 0012                       __CFG_FCMEN$OFF 0000  
                   __end_of_TMR0_ISR 0148                        __CFG_WRTB$OFF 0000  
                      __CFG_WRTC$OFF 0000                       __CFG_BOREN$OFF 0000  
                              status 0003                                wtemp0 007E  
                     __CFG_CSWEN$OFF 0000                      __initialization 0015  
                       __end_of_main 00F2                       __CFG_SAFEN$OFF 0000  
        ?_INTERRUPT_InterruptManager 0079                          _HandleSleep 0089  
                             ??_main 007D              __end_of_TMR0_StartTimer 0173  
                             _ANSELA 1F38                   __CFG_RSTOSC$HFINT1 0000  
                             _T0CON0 059E                               _T0CON1 059F  
                             _IOCAN0 F9F0                               _ODCONA 1F3A  
                     __CFG_WDTCCS$SC 0000                               _INLVLA 1F3C  
                             _OSCFRQ 0893                            ??_MainFSM 007A  
                         _u1_InWater 0077                       __CFG_PWRTE$OFF 0000  
                 __size_of_MySwTimer 0020                       __CFG_STVREN$ON 0000  
                         _PrepareRun 012E                     ?_TMR0_Initialize 0079  
                     _PMD_Initialize 0165                          _u16_SwTimer 0070  
                        _u16_Timeout 0020                    _SYSTEM_Initialize 015C  
            __end_of__initialization 0021                   ?_SYSTEM_Initialize 0079  
                     __pcstackCOMMON 0079                  ??_SYSTEM_Initialize 007A  
                          ?_TMR0_ISR 0079               __end_of_PMD_Initialize 016D  
                   ?_TMR0_StartTimer 0079            __end_of_SYSTEM_Initialize 0165  
                  __end_of_MySwTimer 0112                           __pbssBANK0 0020  
                 _u16_MinutesElapsed 0074                           __pmaintext 00D2  
            __size_of_TMR0_StopTimer 0003                           ??_TMR0_ISR 0079  
                        ?_PrepareRun 0079                      __CFG_PPS1WAY$ON 0000  
                         __pintentry 0004                      ?_PMD_Initialize 0079  
                            _CPUDOZE 088C                        ?_PrepareSleep 0079  
                            _OSCCON1 088D                              _OSCCON3 088F  
                            _OSCSTAT 0890                              _OSCTUNE 0892  
                            _SLRCONA 1F3B                              _MainFSM 0024  
                         _ms_MainFSM 0076                         ?_HandleSleep 0079  
                            __ptext1 0112                              __ptext2 015C  
                            __ptext3 0165                              __ptext4 0148  
                            __ptext5 0120                              __ptext6 00F2  
                            __ptext7 0024                              __ptext8 0089  
                            __ptext9 0152                      __CFG_WRTAPP$OFF 0000  
                     ??_PrepareSleep 007A                _OSCILLATOR_Initialize 0148  
           ??_PIN_MANAGER_Initialize 007A                      __CFG_WRTSAF$OFF 0000  
         __size_of_SYSTEM_Initialize 0009                 end_of_initialization 0021  
                __size_of_PrepareRun 000E                __CFG_WDTCPS$WDTCPS_31 0000  
                          _PORTAbits 000C                    _u1_TimerIsrOcured 0078  
                   __CFG_FEXTOSC$OFF 0000                       _TMR0_StopTimer 016D  
                  __size_of_TMR0_ISR 000C               ?_OSCILLATOR_Initialize 0079  
                start_initialization 0015             __size_of_TMR0_Initialize 000E  
    __size_of_PIN_MANAGER_Initialize 000E                            _MySwTimer 00F2  
               __end_of_PrepareSleep 015C               __end_of_TMR0_StopTimer 0170  
                   __CFG_LPBOREN$OFF 0000                     ??_PMD_Initialize 007A  
                       ??_PrepareRun 007A                 __size_of_HandleSleep 0049  
                        __pbssCOMMON 0070                            ___latbits 0000  
                 __end_of_PrepareRun 013C                             ?_MainFSM 0079  
                         ?_MySwTimer 0079             __size_of_TMR0_StartTimer 0003  
                    ?_TMR0_StopTimer 0079               _PIN_MANAGER_Initialize 0120  
       ??_INTERRUPT_InterruptManager 007A                    ??_TMR0_Initialize 007A  
                           _LATAbits 0018                             _PIE0bits 0716  
__size_of_INTERRUPT_InterruptManager 0010                             _PIR0bits 070C  
                  __CFG_BBSIZE$BB512 0000                             _TMR0_ISR 013C  
              __size_of_PrepareSleep 000A                          ??_MySwTimer 007A  
                   __size_of_MainFSM 0065              ??_OSCILLATOR_Initialize 007A  
                  ??_TMR0_StartTimer 007A                         _PrepareSleep 0152  
                         _T0CON0bits 059E                             __ptext10 016D  
                           __ptext11 012E                             __ptext12 0170  
                           __ptext14 013C                        __size_of_main 0020  
               __CFG_WDTCWS$WDTCWS_7 0000                             int$flags 007E  
 __end_of_INTERRUPT_InterruptManager 0014           _INTERRUPT_InterruptManager 0004  
                         _INTCONbits 000B                             intlevel1 0000  
                   ??_TMR0_StopTimer 007A              ?_PIN_MANAGER_Initialize 0079  
                  __CFG_CLKOUTEN$OFF 0000                        ??_HandleSleep 007A  
                    _TMR0_Initialize 0112       __end_of_PIN_MANAGER_Initialize 012E  
